
Air_Conditioner_Screen.elf:     file format elf32-avr

Sections:
Idx Name          Size      VMA       LMA       File off  Algn
  0 .text         00000bb2  00000000  00000000  00000094  2**1
                  CONTENTS, ALLOC, LOAD, READONLY, CODE
  1 .data         0000004c  00800060  00000bb2  00000c46  2**0
                  CONTENTS, ALLOC, LOAD, DATA
  2 .bss          00000017  008000ac  008000ac  00000c92  2**0
                  ALLOC
  3 .stab         00001adc  00000000  00000000  00000c94  2**2
                  CONTENTS, READONLY, DEBUGGING
  4 .stabstr      00000c3e  00000000  00000000  00002770  2**0
                  CONTENTS, READONLY, DEBUGGING

Disassembly of section .text:

00000000 <__vectors>:
   0:	0c 94 2a 00 	jmp	0x54	; 0x54 <__ctors_end>
   4:	0c 94 47 00 	jmp	0x8e	; 0x8e <__bad_interrupt>
   8:	0c 94 47 00 	jmp	0x8e	; 0x8e <__bad_interrupt>
   c:	0c 94 47 00 	jmp	0x8e	; 0x8e <__bad_interrupt>
  10:	0c 94 47 00 	jmp	0x8e	; 0x8e <__bad_interrupt>
  14:	0c 94 47 00 	jmp	0x8e	; 0x8e <__bad_interrupt>
  18:	0c 94 47 00 	jmp	0x8e	; 0x8e <__bad_interrupt>
  1c:	0c 94 47 00 	jmp	0x8e	; 0x8e <__bad_interrupt>
  20:	0c 94 47 00 	jmp	0x8e	; 0x8e <__bad_interrupt>
  24:	0c 94 47 00 	jmp	0x8e	; 0x8e <__bad_interrupt>
  28:	0c 94 47 00 	jmp	0x8e	; 0x8e <__bad_interrupt>
  2c:	0c 94 47 00 	jmp	0x8e	; 0x8e <__bad_interrupt>
  30:	0c 94 47 00 	jmp	0x8e	; 0x8e <__bad_interrupt>
  34:	0c 94 47 00 	jmp	0x8e	; 0x8e <__bad_interrupt>
  38:	0c 94 47 00 	jmp	0x8e	; 0x8e <__bad_interrupt>
  3c:	0c 94 47 00 	jmp	0x8e	; 0x8e <__bad_interrupt>
  40:	0c 94 47 00 	jmp	0x8e	; 0x8e <__bad_interrupt>
  44:	0c 94 47 00 	jmp	0x8e	; 0x8e <__bad_interrupt>
  48:	0c 94 47 00 	jmp	0x8e	; 0x8e <__bad_interrupt>
  4c:	0c 94 47 00 	jmp	0x8e	; 0x8e <__bad_interrupt>
  50:	0c 94 47 00 	jmp	0x8e	; 0x8e <__bad_interrupt>

00000054 <__ctors_end>:
  54:	11 24       	eor	r1, r1
  56:	1f be       	out	0x3f, r1	; 63
  58:	cf e5       	ldi	r28, 0x5F	; 95
  5a:	d8 e0       	ldi	r29, 0x08	; 8
  5c:	de bf       	out	0x3e, r29	; 62
  5e:	cd bf       	out	0x3d, r28	; 61

00000060 <__do_copy_data>:
  60:	10 e0       	ldi	r17, 0x00	; 0
  62:	a0 e6       	ldi	r26, 0x60	; 96
  64:	b0 e0       	ldi	r27, 0x00	; 0
  66:	e2 eb       	ldi	r30, 0xB2	; 178
  68:	fb e0       	ldi	r31, 0x0B	; 11
  6a:	02 c0       	rjmp	.+4      	; 0x70 <.do_copy_data_start>

0000006c <.do_copy_data_loop>:
  6c:	05 90       	lpm	r0, Z+
  6e:	0d 92       	st	X+, r0

00000070 <.do_copy_data_start>:
  70:	ac 3a       	cpi	r26, 0xAC	; 172
  72:	b1 07       	cpc	r27, r17
  74:	d9 f7       	brne	.-10     	; 0x6c <.do_copy_data_loop>

00000076 <__do_clear_bss>:
  76:	10 e0       	ldi	r17, 0x00	; 0
  78:	ac ea       	ldi	r26, 0xAC	; 172
  7a:	b0 e0       	ldi	r27, 0x00	; 0
  7c:	01 c0       	rjmp	.+2      	; 0x80 <.do_clear_bss_start>

0000007e <.do_clear_bss_loop>:
  7e:	1d 92       	st	X+, r1

00000080 <.do_clear_bss_start>:
  80:	a3 3c       	cpi	r26, 0xC3	; 195
  82:	b1 07       	cpc	r27, r17
  84:	e1 f7       	brne	.-8      	; 0x7e <.do_clear_bss_loop>
  86:	0e 94 65 04 	call	0x8ca	; 0x8ca <main>
  8a:	0c 94 d7 05 	jmp	0xbae	; 0xbae <_exit>

0000008e <__bad_interrupt>:
  8e:	0c 94 00 00 	jmp	0	; 0x0 <__vectors>

00000092 <EEPROM_voidInit>:
/*Comment!: initialize EEPROM*/
extern void EEPROM_voidInit(void)
{

	return;
}
  92:	08 95       	ret

00000094 <EEPROM_voidWriteByte>:


/*Comment!: Write byte to EEPROM*/
extern void EEPROM_voidWriteByte(u8 Copy_u8Data, u16 Copy_u16Addresss)
{
	while( GET_BIT(EEPROM_u8EECR,EEPROM_EECR_EEWE) );
  94:	e1 99       	sbic	0x1c, 1	; 28
  96:	fe cf       	rjmp	.-4      	; 0x94 <EEPROM_voidWriteByte>

/*Comment!:Set address*/
	ASSIGN_REG(EEPROM_u16EEAR,Copy_u16Addresss);
  98:	7f bb       	out	0x1f, r23	; 31
  9a:	6e bb       	out	0x1e, r22	; 30

/*Comment!:enable writing operation*/
	ASSIGN_REG(EEPROM_u8EEDR,Copy_u8Data);
  9c:	8d bb       	out	0x1d, r24	; 29

	SET_BIT(EEPROM_u8EECR,EEPROM_EECR_EEMWE);
  9e:	e2 9a       	sbi	0x1c, 2	; 28
	SET_BIT(EEPROM_u8EECR,EEPROM_EECR_EEWE);
  a0:	e1 9a       	sbi	0x1c, 1	; 28
	return;
}
  a2:	08 95       	ret

000000a4 <EEPROM_u8ReadByte>:
extern u8 EEPROM_u8ReadByte(u16 Copy_u16Address)
{
	u8 local_u8EEPROMDATA;

/*Comment!:Set address*/
	ASSIGN_REG(EEPROM_u16EEAR,Copy_u16Address);
  a4:	9f bb       	out	0x1f, r25	; 31
  a6:	8e bb       	out	0x1e, r24	; 30

/*Comment!:Enable read flag*/
	SET_BIT(EEPROM_u8EECR,EEPROM_EECR_EERE);
  a8:	e0 9a       	sbi	0x1c, 0	; 28
	local_u8EEPROMDATA=EEPROM_u8EEDR;
  aa:	8d b3       	in	r24, 0x1d	; 29

	return local_u8EEPROMDATA;
}
  ac:	08 95       	ret

000000ae <DIO_voidInit>:
PINC, PIND };
static volatile u8* const DIO_u8WritePortArr[DIO_u8PORTNUMBERS] = { PORTA,
PORTB, PORTC, PORTD };

void DIO_voidInit(void) {
	*DDRA |= DIO_u8PORTA_DIR;
  ae:	8a b3       	in	r24, 0x1a	; 26
  b0:	8a bb       	out	0x1a, r24	; 26
	*DDRB |= DIO_u8PORTB_DIR;
  b2:	87 b3       	in	r24, 0x17	; 23
  b4:	87 bb       	out	0x17, r24	; 23
	*DDRC |= DIO_u8PORTC_DIR;
  b6:	84 b3       	in	r24, 0x14	; 20
  b8:	8f ef       	ldi	r24, 0xFF	; 255
  ba:	84 bb       	out	0x14, r24	; 20
	*DDRD |= DIO_u8PORTD_DIR;
  bc:	81 b3       	in	r24, 0x11	; 17
  be:	87 60       	ori	r24, 0x07	; 7
  c0:	81 bb       	out	0x11, r24	; 17

	*PORTA = (*PORTA & ~DIO_u8PORTA_DIR) | (DIO_u8PORTA_DIR & DIO_u8PORTA_VAL);
  c2:	8b b3       	in	r24, 0x1b	; 27
  c4:	8b bb       	out	0x1b, r24	; 27
	*PORTB = (*PORTB & ~DIO_u8PORTB_DIR) | (DIO_u8PORTB_DIR & DIO_u8PORTB_VAL);
  c6:	88 b3       	in	r24, 0x18	; 24
  c8:	88 bb       	out	0x18, r24	; 24
	*PORTC = (*PORTC & ~DIO_u8PORTC_DIR) | (DIO_u8PORTC_DIR & DIO_u8PORTC_VAL);
  ca:	85 b3       	in	r24, 0x15	; 21
  cc:	15 ba       	out	0x15, r1	; 21
	*PORTD = (*PORTD & ~DIO_u8PORTD_DIR) | (DIO_u8PORTD_DIR & DIO_u8PORTD_VAL);
  ce:	82 b3       	in	r24, 0x12	; 18
  d0:	88 7f       	andi	r24, 0xF8	; 248
  d2:	82 bb       	out	0x12, r24	; 18

	return;
}
  d4:	08 95       	ret

000000d6 <DIO_u8ReadPortDir>:

u8 DIO_u8ReadPortDir(u8 Copy_u8PortIdx, u8* Copy_u8PtrToDir) {
  d6:	db 01       	movw	r26, r22
	u8 Local_u8ReturnFlag = OK;
	if (Copy_u8PortIdx > DIO_u8PORTNUMBERS - 1 || Copy_u8PortIdx < 0) {
  d8:	84 30       	cpi	r24, 0x04	; 4
  da:	68 f4       	brcc	.+26     	; 0xf6 <DIO_u8ReadPortDir+0x20>
		Local_u8ReturnFlag = ERROR;
	} else {
		*Copy_u8PtrToDir = *DIO_u8RWDirArr[Copy_u8PortIdx];
  dc:	e8 2f       	mov	r30, r24
  de:	f0 e0       	ldi	r31, 0x00	; 0
  e0:	ee 0f       	add	r30, r30
  e2:	ff 1f       	adc	r31, r31
  e4:	ed 57       	subi	r30, 0x7D	; 125
  e6:	ff 4f       	sbci	r31, 0xFF	; 255
  e8:	01 90       	ld	r0, Z+
  ea:	f0 81       	ld	r31, Z
  ec:	e0 2d       	mov	r30, r0
  ee:	80 81       	ld	r24, Z
  f0:	8c 93       	st	X, r24
  f2:	81 e0       	ldi	r24, 0x01	; 1
		Local_u8ReturnFlag = OK;
	}
	return Local_u8ReturnFlag;

}
  f4:	08 95       	ret
	return;
}

u8 DIO_u8ReadPortDir(u8 Copy_u8PortIdx, u8* Copy_u8PtrToDir) {
	u8 Local_u8ReturnFlag = OK;
	if (Copy_u8PortIdx > DIO_u8PORTNUMBERS - 1 || Copy_u8PortIdx < 0) {
  f6:	80 e0       	ldi	r24, 0x00	; 0
  f8:	08 95       	ret

000000fa <DIO_u8WritePortDir>:
}

u8 DIO_u8WritePortDir(u8 Copy_u8PortIdx, u8 Copy_u8PortDir) {

	u8 Local_u8ReturnFlag = OK;
	if (Copy_u8PortIdx > DIO_u8PORTNUMBERS - 1 || Copy_u8PortIdx < 0) {
  fa:	84 30       	cpi	r24, 0x04	; 4
  fc:	60 f4       	brcc	.+24     	; 0x116 <DIO_u8WritePortDir+0x1c>
		Local_u8ReturnFlag = ERROR;
	} else {
		*DIO_u8RWDirArr[Copy_u8PortIdx] = Copy_u8PortDir;
  fe:	e8 2f       	mov	r30, r24
 100:	f0 e0       	ldi	r31, 0x00	; 0
 102:	ee 0f       	add	r30, r30
 104:	ff 1f       	adc	r31, r31
 106:	ed 57       	subi	r30, 0x7D	; 125
 108:	ff 4f       	sbci	r31, 0xFF	; 255
 10a:	01 90       	ld	r0, Z+
 10c:	f0 81       	ld	r31, Z
 10e:	e0 2d       	mov	r30, r0
 110:	60 83       	st	Z, r22
 112:	81 e0       	ldi	r24, 0x01	; 1
		Local_u8ReturnFlag = OK;
	}
	return Local_u8ReturnFlag;

}
 114:	08 95       	ret
}

u8 DIO_u8WritePortDir(u8 Copy_u8PortIdx, u8 Copy_u8PortDir) {

	u8 Local_u8ReturnFlag = OK;
	if (Copy_u8PortIdx > DIO_u8PORTNUMBERS - 1 || Copy_u8PortIdx < 0) {
 116:	80 e0       	ldi	r24, 0x00	; 0
 118:	08 95       	ret

0000011a <DIO_u8ReadPortVal>:
	}
	return Local_u8ReturnFlag;

}

u8 DIO_u8ReadPortVal(u8 Copy_u8PortIdx, u8* Copy_u8PtrToVal) {
 11a:	db 01       	movw	r26, r22

	u8 Local_u8ReturnFlag = OK;
	if (Copy_u8PortIdx > DIO_u8PORTNUMBERS - 1 || Copy_u8PortIdx < 0) {
 11c:	84 30       	cpi	r24, 0x04	; 4
 11e:	68 f4       	brcc	.+26     	; 0x13a <DIO_u8ReadPortVal+0x20>
		Local_u8ReturnFlag = ERROR;
	} else {
		*Copy_u8PtrToVal = *DIO_u8ReadPortArr[Copy_u8PortIdx];
 120:	e8 2f       	mov	r30, r24
 122:	f0 e0       	ldi	r31, 0x00	; 0
 124:	ee 0f       	add	r30, r30
 126:	ff 1f       	adc	r31, r31
 128:	e5 58       	subi	r30, 0x85	; 133
 12a:	ff 4f       	sbci	r31, 0xFF	; 255
 12c:	01 90       	ld	r0, Z+
 12e:	f0 81       	ld	r31, Z
 130:	e0 2d       	mov	r30, r0
 132:	80 81       	ld	r24, Z
 134:	8c 93       	st	X, r24
 136:	81 e0       	ldi	r24, 0x01	; 1
		Local_u8ReturnFlag = OK;
	}
	return Local_u8ReturnFlag;

}
 138:	08 95       	ret
}

u8 DIO_u8ReadPortVal(u8 Copy_u8PortIdx, u8* Copy_u8PtrToVal) {

	u8 Local_u8ReturnFlag = OK;
	if (Copy_u8PortIdx > DIO_u8PORTNUMBERS - 1 || Copy_u8PortIdx < 0) {
 13a:	80 e0       	ldi	r24, 0x00	; 0
 13c:	08 95       	ret

0000013e <DIO_u8WritePortVal>:
}

u8 DIO_u8WritePortVal(u8 Copy_u8PortIdx, u8 Copy_u8PortVal) {

	u8 Local_u8ReturnFlag = OK;
	if (Copy_u8PortIdx > DIO_u8PORTNUMBERS - 1 || Copy_u8PortIdx < 0) {
 13e:	84 30       	cpi	r24, 0x04	; 4
 140:	60 f4       	brcc	.+24     	; 0x15a <DIO_u8WritePortVal+0x1c>
		Local_u8ReturnFlag = ERROR;
	} else {
		*DIO_u8WritePortArr[Copy_u8PortIdx] = Copy_u8PortVal;
 142:	e8 2f       	mov	r30, r24
 144:	f0 e0       	ldi	r31, 0x00	; 0
 146:	ee 0f       	add	r30, r30
 148:	ff 1f       	adc	r31, r31
 14a:	ed 58       	subi	r30, 0x8D	; 141
 14c:	ff 4f       	sbci	r31, 0xFF	; 255
 14e:	01 90       	ld	r0, Z+
 150:	f0 81       	ld	r31, Z
 152:	e0 2d       	mov	r30, r0
 154:	60 83       	st	Z, r22
 156:	81 e0       	ldi	r24, 0x01	; 1
		Local_u8ReturnFlag = OK;
	}
	return Local_u8ReturnFlag;
}
 158:	08 95       	ret
}

u8 DIO_u8WritePortVal(u8 Copy_u8PortIdx, u8 Copy_u8PortVal) {

	u8 Local_u8ReturnFlag = OK;
	if (Copy_u8PortIdx > DIO_u8PORTNUMBERS - 1 || Copy_u8PortIdx < 0) {
 15a:	80 e0       	ldi	r24, 0x00	; 0
 15c:	08 95       	ret

0000015e <DIO_u8ReadPinDir>:
		*DIO_u8WritePortArr[Copy_u8PortIdx] = Copy_u8PortVal;
		Local_u8ReturnFlag = OK;
	}
	return Local_u8ReturnFlag;
}
u8 DIO_u8ReadPinDir(u8 Copy_u8ChIdx, u8* Copy_u8PtrToDir) {
 15e:	db 01       	movw	r26, r22
	u8 Local_u8ReturnFlag = OK;
	if (Copy_u8ChIdx > DIO_u8PINNUMBERS - 1 || Copy_u8ChIdx < 0) {
 160:	80 32       	cpi	r24, 0x20	; 32
 162:	20 f5       	brcc	.+72     	; 0x1ac <DIO_u8ReadPinDir+0x4e>
		Local_u8ReturnFlag = ERROR;
	} else {

		*Copy_u8PtrToDir = GET_BIT(*DIO_u8RWDirArr[Copy_u8ChIdx/DIO_u8PORTSIZE],
 164:	e8 2f       	mov	r30, r24
 166:	e6 95       	lsr	r30
 168:	e6 95       	lsr	r30
 16a:	e6 95       	lsr	r30
 16c:	f0 e0       	ldi	r31, 0x00	; 0
 16e:	ee 0f       	add	r30, r30
 170:	ff 1f       	adc	r31, r31
 172:	ed 57       	subi	r30, 0x7D	; 125
 174:	ff 4f       	sbci	r31, 0xFF	; 255
 176:	01 90       	ld	r0, Z+
 178:	f0 81       	ld	r31, Z
 17a:	e0 2d       	mov	r30, r0
 17c:	20 81       	ld	r18, Z
 17e:	48 2f       	mov	r20, r24
 180:	50 e0       	ldi	r21, 0x00	; 0
 182:	47 70       	andi	r20, 0x07	; 7
 184:	50 70       	andi	r21, 0x00	; 0
 186:	30 e0       	ldi	r19, 0x00	; 0
 188:	81 e0       	ldi	r24, 0x01	; 1
 18a:	90 e0       	ldi	r25, 0x00	; 0
 18c:	04 2e       	mov	r0, r20
 18e:	02 c0       	rjmp	.+4      	; 0x194 <DIO_u8ReadPinDir+0x36>
 190:	88 0f       	add	r24, r24
 192:	99 1f       	adc	r25, r25
 194:	0a 94       	dec	r0
 196:	e2 f7       	brpl	.-8      	; 0x190 <DIO_u8ReadPinDir+0x32>
 198:	28 23       	and	r18, r24
 19a:	39 23       	and	r19, r25
 19c:	02 c0       	rjmp	.+4      	; 0x1a2 <DIO_u8ReadPinDir+0x44>
 19e:	35 95       	asr	r19
 1a0:	27 95       	ror	r18
 1a2:	4a 95       	dec	r20
 1a4:	e2 f7       	brpl	.-8      	; 0x19e <DIO_u8ReadPinDir+0x40>
 1a6:	2c 93       	st	X, r18
 1a8:	81 e0       	ldi	r24, 0x01	; 1
		Local_u8ReturnFlag = OK;
	}

	return Local_u8ReturnFlag;

}
 1aa:	08 95       	ret
	}
	return Local_u8ReturnFlag;
}
u8 DIO_u8ReadPinDir(u8 Copy_u8ChIdx, u8* Copy_u8PtrToDir) {
	u8 Local_u8ReturnFlag = OK;
	if (Copy_u8ChIdx > DIO_u8PINNUMBERS - 1 || Copy_u8ChIdx < 0) {
 1ac:	80 e0       	ldi	r24, 0x00	; 0
 1ae:	08 95       	ret

000001b0 <DIO_u8WritePinDir>:
	return Local_u8ReturnFlag;

}
u8 DIO_u8WritePinDir(u8 Copy_u8ChIdx, u8 Copy_u8PinDir) {
	u8 Local_u8ReturnFlag = OK;
	if (Copy_u8ChIdx > DIO_u8PINNUMBERS - 1 || Copy_u8ChIdx < 0) {
 1b0:	80 32       	cpi	r24, 0x20	; 32
 1b2:	30 f5       	brcc	.+76     	; 0x200 <DIO_u8WritePinDir+0x50>
		Local_u8ReturnFlag = ERROR;
	} else {
		ASSIGN_BIT(*DIO_u8RWDirArr[Copy_u8ChIdx/DIO_u8PORTSIZE],
 1b4:	e8 2f       	mov	r30, r24
 1b6:	e6 95       	lsr	r30
 1b8:	e6 95       	lsr	r30
 1ba:	e6 95       	lsr	r30
 1bc:	f0 e0       	ldi	r31, 0x00	; 0
 1be:	ee 0f       	add	r30, r30
 1c0:	ff 1f       	adc	r31, r31
 1c2:	ed 57       	subi	r30, 0x7D	; 125
 1c4:	ff 4f       	sbci	r31, 0xFF	; 255
 1c6:	01 90       	ld	r0, Z+
 1c8:	f0 81       	ld	r31, Z
 1ca:	e0 2d       	mov	r30, r0
 1cc:	20 81       	ld	r18, Z
 1ce:	48 2f       	mov	r20, r24
 1d0:	50 e0       	ldi	r21, 0x00	; 0
 1d2:	47 70       	andi	r20, 0x07	; 7
 1d4:	50 70       	andi	r21, 0x00	; 0
 1d6:	81 e0       	ldi	r24, 0x01	; 1
 1d8:	90 e0       	ldi	r25, 0x00	; 0
 1da:	04 2e       	mov	r0, r20
 1dc:	02 c0       	rjmp	.+4      	; 0x1e2 <DIO_u8WritePinDir+0x32>
 1de:	88 0f       	add	r24, r24
 1e0:	99 1f       	adc	r25, r25
 1e2:	0a 94       	dec	r0
 1e4:	e2 f7       	brpl	.-8      	; 0x1de <DIO_u8WritePinDir+0x2e>
 1e6:	80 95       	com	r24
 1e8:	82 23       	and	r24, r18
 1ea:	26 2f       	mov	r18, r22
 1ec:	30 e0       	ldi	r19, 0x00	; 0
 1ee:	02 c0       	rjmp	.+4      	; 0x1f4 <DIO_u8WritePinDir+0x44>
 1f0:	22 0f       	add	r18, r18
 1f2:	33 1f       	adc	r19, r19
 1f4:	4a 95       	dec	r20
 1f6:	e2 f7       	brpl	.-8      	; 0x1f0 <DIO_u8WritePinDir+0x40>
 1f8:	82 2b       	or	r24, r18
 1fa:	80 83       	st	Z, r24
 1fc:	81 e0       	ldi	r24, 0x01	; 1
				(Copy_u8ChIdx%DIO_u8PORTSIZE), Copy_u8PinDir);
		Local_u8ReturnFlag = OK;
	}

	return Local_u8ReturnFlag;
}
 1fe:	08 95       	ret
	return Local_u8ReturnFlag;

}
u8 DIO_u8WritePinDir(u8 Copy_u8ChIdx, u8 Copy_u8PinDir) {
	u8 Local_u8ReturnFlag = OK;
	if (Copy_u8ChIdx > DIO_u8PINNUMBERS - 1 || Copy_u8ChIdx < 0) {
 200:	80 e0       	ldi	r24, 0x00	; 0
 202:	08 95       	ret

00000204 <DIO_u8ReadPinVal>:
	}

	return Local_u8ReturnFlag;
}

u8 DIO_u8ReadPinVal(u8 Copy_u8ChIdx, u8* Copy_u8PtrToVal) {
 204:	db 01       	movw	r26, r22
	u8 Local_u8ReturnFlag = OK;
	if (Copy_u8ChIdx > DIO_u8PINNUMBERS - 1 || Copy_u8ChIdx < 0) {
 206:	80 32       	cpi	r24, 0x20	; 32
 208:	20 f5       	brcc	.+72     	; 0x252 <DIO_u8ReadPinVal+0x4e>
		Local_u8ReturnFlag = ERROR;
	} else {

		*Copy_u8PtrToVal = GET_BIT(
 20a:	e8 2f       	mov	r30, r24
 20c:	e6 95       	lsr	r30
 20e:	e6 95       	lsr	r30
 210:	e6 95       	lsr	r30
 212:	f0 e0       	ldi	r31, 0x00	; 0
 214:	ee 0f       	add	r30, r30
 216:	ff 1f       	adc	r31, r31
 218:	e5 58       	subi	r30, 0x85	; 133
 21a:	ff 4f       	sbci	r31, 0xFF	; 255
 21c:	01 90       	ld	r0, Z+
 21e:	f0 81       	ld	r31, Z
 220:	e0 2d       	mov	r30, r0
 222:	20 81       	ld	r18, Z
 224:	48 2f       	mov	r20, r24
 226:	50 e0       	ldi	r21, 0x00	; 0
 228:	47 70       	andi	r20, 0x07	; 7
 22a:	50 70       	andi	r21, 0x00	; 0
 22c:	30 e0       	ldi	r19, 0x00	; 0
 22e:	81 e0       	ldi	r24, 0x01	; 1
 230:	90 e0       	ldi	r25, 0x00	; 0
 232:	04 2e       	mov	r0, r20
 234:	02 c0       	rjmp	.+4      	; 0x23a <DIO_u8ReadPinVal+0x36>
 236:	88 0f       	add	r24, r24
 238:	99 1f       	adc	r25, r25
 23a:	0a 94       	dec	r0
 23c:	e2 f7       	brpl	.-8      	; 0x236 <DIO_u8ReadPinVal+0x32>
 23e:	28 23       	and	r18, r24
 240:	39 23       	and	r19, r25
 242:	02 c0       	rjmp	.+4      	; 0x248 <DIO_u8ReadPinVal+0x44>
 244:	35 95       	asr	r19
 246:	27 95       	ror	r18
 248:	4a 95       	dec	r20
 24a:	e2 f7       	brpl	.-8      	; 0x244 <DIO_u8ReadPinVal+0x40>
 24c:	2c 93       	st	X, r18
 24e:	81 e0       	ldi	r24, 0x01	; 1
				(Copy_u8ChIdx%DIO_u8PORTSIZE));
		Local_u8ReturnFlag = OK;
	}

	return Local_u8ReturnFlag;
}
 250:	08 95       	ret
	return Local_u8ReturnFlag;
}

u8 DIO_u8ReadPinVal(u8 Copy_u8ChIdx, u8* Copy_u8PtrToVal) {
	u8 Local_u8ReturnFlag = OK;
	if (Copy_u8ChIdx > DIO_u8PINNUMBERS - 1 || Copy_u8ChIdx < 0) {
 252:	80 e0       	ldi	r24, 0x00	; 0
 254:	08 95       	ret

00000256 <DIO_u8WritePinVal>:
	return Local_u8ReturnFlag;
}

u8 DIO_u8WritePinVal(u8 Copy_u8ChIdx, u8 Copy_u8PinVal) {
	u8 Local_u8ReturnFlag = OK;
	if (Copy_u8ChIdx > DIO_u8PINNUMBERS - 1 || Copy_u8ChIdx < 0) {
 256:	80 32       	cpi	r24, 0x20	; 32
 258:	30 f5       	brcc	.+76     	; 0x2a6 <DIO_u8WritePinVal+0x50>
		Local_u8ReturnFlag = ERROR;
	} else {
		ASSIGN_BIT(*DIO_u8WritePortArr[Copy_u8ChIdx/DIO_u8PORTSIZE],
 25a:	e8 2f       	mov	r30, r24
 25c:	e6 95       	lsr	r30
 25e:	e6 95       	lsr	r30
 260:	e6 95       	lsr	r30
 262:	f0 e0       	ldi	r31, 0x00	; 0
 264:	ee 0f       	add	r30, r30
 266:	ff 1f       	adc	r31, r31
 268:	ed 58       	subi	r30, 0x8D	; 141
 26a:	ff 4f       	sbci	r31, 0xFF	; 255
 26c:	01 90       	ld	r0, Z+
 26e:	f0 81       	ld	r31, Z
 270:	e0 2d       	mov	r30, r0
 272:	20 81       	ld	r18, Z
 274:	48 2f       	mov	r20, r24
 276:	50 e0       	ldi	r21, 0x00	; 0
 278:	47 70       	andi	r20, 0x07	; 7
 27a:	50 70       	andi	r21, 0x00	; 0
 27c:	81 e0       	ldi	r24, 0x01	; 1
 27e:	90 e0       	ldi	r25, 0x00	; 0
 280:	04 2e       	mov	r0, r20
 282:	02 c0       	rjmp	.+4      	; 0x288 <DIO_u8WritePinVal+0x32>
 284:	88 0f       	add	r24, r24
 286:	99 1f       	adc	r25, r25
 288:	0a 94       	dec	r0
 28a:	e2 f7       	brpl	.-8      	; 0x284 <DIO_u8WritePinVal+0x2e>
 28c:	80 95       	com	r24
 28e:	82 23       	and	r24, r18
 290:	26 2f       	mov	r18, r22
 292:	30 e0       	ldi	r19, 0x00	; 0
 294:	02 c0       	rjmp	.+4      	; 0x29a <DIO_u8WritePinVal+0x44>
 296:	22 0f       	add	r18, r18
 298:	33 1f       	adc	r19, r19
 29a:	4a 95       	dec	r20
 29c:	e2 f7       	brpl	.-8      	; 0x296 <DIO_u8WritePinVal+0x40>
 29e:	82 2b       	or	r24, r18
 2a0:	80 83       	st	Z, r24
 2a2:	81 e0       	ldi	r24, 0x01	; 1
				(Copy_u8ChIdx%DIO_u8PORTSIZE), Copy_u8PinVal);
		Local_u8ReturnFlag = OK;
	}

	return Local_u8ReturnFlag;
}
 2a4:	08 95       	ret
	return Local_u8ReturnFlag;
}

u8 DIO_u8WritePinVal(u8 Copy_u8ChIdx, u8 Copy_u8PinVal) {
	u8 Local_u8ReturnFlag = OK;
	if (Copy_u8ChIdx > DIO_u8PINNUMBERS - 1 || Copy_u8ChIdx < 0) {
 2a6:	80 e0       	ldi	r24, 0x00	; 0
 2a8:	08 95       	ret

000002aa <LCD_u16ReturnString>:
	LCD_VoidCmd(0x01);
}
/*********************************************************************************************/

u16* LCD_u16ReturnString(u16 inputValue)
{
 2aa:	9c 01       	movw	r18, r24
    static u16 Local_u16ProcessedString[5]; // Return a string of 3 digits.
    u8 Local_u8Counter=0; // Brute-force counter for first digit.

    if (inputValue < 99)
 2ac:	83 36       	cpi	r24, 0x63	; 99
 2ae:	91 05       	cpc	r25, r1
 2b0:	08 f4       	brcc	.+2      	; 0x2b4 <LCD_u16ReturnString+0xa>
 2b2:	60 c0       	rjmp	.+192    	; 0x374 <LCD_u16ReturnString+0xca>
    {
    	Local_u16ProcessedString[Local_u8Counter++]=inputValue / 10 +'0'; //first number
    	Local_u16ProcessedString[Local_u8Counter++]=inputValue % 10 +'0';//Second number
    }
    else if (inputValue < 999)
 2b4:	83 e0       	ldi	r24, 0x03	; 3
 2b6:	27 3e       	cpi	r18, 0xE7	; 231
 2b8:	38 07       	cpc	r19, r24
 2ba:	68 f1       	brcs	.+90     	; 0x316 <LCD_u16ReturnString+0x6c>
    {
    	Local_u16ProcessedString[Local_u8Counter++]=(inputValue / 100) +'0'; //first number
    	Local_u16ProcessedString[Local_u8Counter++]=((inputValue / 10) % 10) +'0';//Second number
    	Local_u16ProcessedString[Local_u8Counter++]=inputValue % 10 +'0';//Third number
    }
    else if (inputValue < 1024)
 2bc:	84 e0       	ldi	r24, 0x04	; 4
 2be:	20 30       	cpi	r18, 0x00	; 0
 2c0:	38 07       	cpc	r19, r24
 2c2:	08 f0       	brcs	.+2      	; 0x2c6 <LCD_u16ReturnString+0x1c>
 2c4:	6e c0       	rjmp	.+220    	; 0x3a2 <LCD_u16ReturnString+0xf8>
    {
    	Local_u16ProcessedString[Local_u8Counter++]='1'; //first number
 2c6:	81 e3       	ldi	r24, 0x31	; 49
 2c8:	90 e0       	ldi	r25, 0x00	; 0
 2ca:	90 93 ad 00 	sts	0x00AD, r25
 2ce:	80 93 ac 00 	sts	0x00AC, r24
    	Local_u16ProcessedString[Local_u8Counter++]='0'; //Second number
 2d2:	80 e3       	ldi	r24, 0x30	; 48
 2d4:	90 e0       	ldi	r25, 0x00	; 0
 2d6:	90 93 af 00 	sts	0x00AF, r25
 2da:	80 93 ae 00 	sts	0x00AE, r24
    	Local_u16ProcessedString[Local_u8Counter++]=((inputValue / 10) % 10) +'0';//Third number
 2de:	c9 01       	movw	r24, r18
 2e0:	6a e0       	ldi	r22, 0x0A	; 10
 2e2:	70 e0       	ldi	r23, 0x00	; 0
 2e4:	0e 94 b0 05 	call	0xb60	; 0xb60 <__udivmodhi4>
 2e8:	cb 01       	movw	r24, r22
 2ea:	6a e0       	ldi	r22, 0x0A	; 10
 2ec:	70 e0       	ldi	r23, 0x00	; 0
 2ee:	0e 94 b0 05 	call	0xb60	; 0xb60 <__udivmodhi4>
 2f2:	c0 96       	adiw	r24, 0x30	; 48
 2f4:	90 93 b1 00 	sts	0x00B1, r25
 2f8:	80 93 b0 00 	sts	0x00B0, r24
    	Local_u16ProcessedString[Local_u8Counter++]=inputValue % 10 +'0';//Forth number
 2fc:	c9 01       	movw	r24, r18
 2fe:	6a e0       	ldi	r22, 0x0A	; 10
 300:	70 e0       	ldi	r23, 0x00	; 0
 302:	0e 94 b0 05 	call	0xb60	; 0xb60 <__udivmodhi4>
 306:	c0 96       	adiw	r24, 0x30	; 48
 308:	90 93 b3 00 	sts	0x00B3, r25
 30c:	80 93 b2 00 	sts	0x00B2, r24
 310:	e4 e0       	ldi	r30, 0x04	; 4
 312:	f0 e0       	ldi	r31, 0x00	; 0
 314:	26 c0       	rjmp	.+76     	; 0x362 <LCD_u16ReturnString+0xb8>
    	Local_u16ProcessedString[Local_u8Counter++]=inputValue / 10 +'0'; //first number
    	Local_u16ProcessedString[Local_u8Counter++]=inputValue % 10 +'0';//Second number
    }
    else if (inputValue < 999)
    {
    	Local_u16ProcessedString[Local_u8Counter++]=(inputValue / 100) +'0'; //first number
 316:	c9 01       	movw	r24, r18
 318:	64 e6       	ldi	r22, 0x64	; 100
 31a:	70 e0       	ldi	r23, 0x00	; 0
 31c:	0e 94 b0 05 	call	0xb60	; 0xb60 <__udivmodhi4>
 320:	60 5d       	subi	r22, 0xD0	; 208
 322:	7f 4f       	sbci	r23, 0xFF	; 255
 324:	70 93 ad 00 	sts	0x00AD, r23
 328:	60 93 ac 00 	sts	0x00AC, r22
    	Local_u16ProcessedString[Local_u8Counter++]=((inputValue / 10) % 10) +'0';//Second number
 32c:	c9 01       	movw	r24, r18
 32e:	6a e0       	ldi	r22, 0x0A	; 10
 330:	70 e0       	ldi	r23, 0x00	; 0
 332:	0e 94 b0 05 	call	0xb60	; 0xb60 <__udivmodhi4>
 336:	cb 01       	movw	r24, r22
 338:	6a e0       	ldi	r22, 0x0A	; 10
 33a:	70 e0       	ldi	r23, 0x00	; 0
 33c:	0e 94 b0 05 	call	0xb60	; 0xb60 <__udivmodhi4>
 340:	c0 96       	adiw	r24, 0x30	; 48
 342:	90 93 af 00 	sts	0x00AF, r25
 346:	80 93 ae 00 	sts	0x00AE, r24
    	Local_u16ProcessedString[Local_u8Counter++]=inputValue % 10 +'0';//Third number
 34a:	c9 01       	movw	r24, r18
 34c:	6a e0       	ldi	r22, 0x0A	; 10
 34e:	70 e0       	ldi	r23, 0x00	; 0
 350:	0e 94 b0 05 	call	0xb60	; 0xb60 <__udivmodhi4>
 354:	c0 96       	adiw	r24, 0x30	; 48
 356:	90 93 b1 00 	sts	0x00B1, r25
 35a:	80 93 b0 00 	sts	0x00B0, r24
 35e:	e3 e0       	ldi	r30, 0x03	; 3
 360:	f0 e0       	ldi	r31, 0x00	; 0
    	Local_u16ProcessedString[Local_u8Counter++]=((inputValue / 10) % 10) +'0';//Third number
    	Local_u16ProcessedString[Local_u8Counter++]=inputValue % 10 +'0';//Forth number
    }
    else;//nothing

    Local_u16ProcessedString[Local_u8Counter]='\0';//last number
 362:	ee 0f       	add	r30, r30
 364:	ff 1f       	adc	r31, r31
 366:	e4 55       	subi	r30, 0x54	; 84
 368:	ff 4f       	sbci	r31, 0xFF	; 255
 36a:	11 82       	std	Z+1, r1	; 0x01
 36c:	10 82       	st	Z, r1
    return Local_u16ProcessedString; // Return the processed string.
}
 36e:	8c ea       	ldi	r24, 0xAC	; 172
 370:	90 e0       	ldi	r25, 0x00	; 0
 372:	08 95       	ret
    static u16 Local_u16ProcessedString[5]; // Return a string of 3 digits.
    u8 Local_u8Counter=0; // Brute-force counter for first digit.

    if (inputValue < 99)
    {
    	Local_u16ProcessedString[Local_u8Counter++]=inputValue / 10 +'0'; //first number
 374:	6a e0       	ldi	r22, 0x0A	; 10
 376:	70 e0       	ldi	r23, 0x00	; 0
 378:	0e 94 b0 05 	call	0xb60	; 0xb60 <__udivmodhi4>
 37c:	60 5d       	subi	r22, 0xD0	; 208
 37e:	7f 4f       	sbci	r23, 0xFF	; 255
 380:	70 93 ad 00 	sts	0x00AD, r23
 384:	60 93 ac 00 	sts	0x00AC, r22
    	Local_u16ProcessedString[Local_u8Counter++]=inputValue % 10 +'0';//Second number
 388:	c9 01       	movw	r24, r18
 38a:	6a e0       	ldi	r22, 0x0A	; 10
 38c:	70 e0       	ldi	r23, 0x00	; 0
 38e:	0e 94 b0 05 	call	0xb60	; 0xb60 <__udivmodhi4>
 392:	c0 96       	adiw	r24, 0x30	; 48
 394:	90 93 af 00 	sts	0x00AF, r25
 398:	80 93 ae 00 	sts	0x00AE, r24
 39c:	e2 e0       	ldi	r30, 0x02	; 2
 39e:	f0 e0       	ldi	r31, 0x00	; 0
 3a0:	e0 cf       	rjmp	.-64     	; 0x362 <LCD_u16ReturnString+0xb8>
    {
    	Local_u16ProcessedString[Local_u8Counter++]=(inputValue / 100) +'0'; //first number
    	Local_u16ProcessedString[Local_u8Counter++]=((inputValue / 10) % 10) +'0';//Second number
    	Local_u16ProcessedString[Local_u8Counter++]=inputValue % 10 +'0';//Third number
    }
    else if (inputValue < 1024)
 3a2:	e0 e0       	ldi	r30, 0x00	; 0
 3a4:	f0 e0       	ldi	r31, 0x00	; 0
 3a6:	dd cf       	rjmp	.-70     	; 0x362 <LCD_u16ReturnString+0xb8>

000003a8 <LCD_EnableLcd>:
	LCD_VoidCmd(0x01);
}
/*****************************************************************/
void LCD_EnableLcd(void)
{
	DIO_u8WritePinVal(LCD_u8Enable,DIO_u8HIGH );
 3a8:	8a e1       	ldi	r24, 0x1A	; 26
 3aa:	61 e0       	ldi	r22, 0x01	; 1
 3ac:	0e 94 2b 01 	call	0x256	; 0x256 <DIO_u8WritePinVal>
 3b0:	80 e0       	ldi	r24, 0x00	; 0
 3b2:	90 e0       	ldi	r25, 0x00	; 0
	Delay_ms_Max1s(1);
 3b4:	00 00       	nop
 3b6:	01 96       	adiw	r24, 0x01	; 1
 3b8:	21 e0       	ldi	r18, 0x01	; 1
 3ba:	84 3f       	cpi	r24, 0xF4	; 244
 3bc:	92 07       	cpc	r25, r18
 3be:	d1 f7       	brne	.-12     	; 0x3b4 <LCD_EnableLcd+0xc>
	DIO_u8WritePinVal(LCD_u8Enable,DIO_u8LOW );
 3c0:	8a e1       	ldi	r24, 0x1A	; 26
 3c2:	60 e0       	ldi	r22, 0x00	; 0
 3c4:	0e 94 2b 01 	call	0x256	; 0x256 <DIO_u8WritePinVal>
 3c8:	80 e0       	ldi	r24, 0x00	; 0
 3ca:	90 e0       	ldi	r25, 0x00	; 0
	Delay_ms_Max1s(1);
 3cc:	00 00       	nop
 3ce:	01 96       	adiw	r24, 0x01	; 1
 3d0:	21 e0       	ldi	r18, 0x01	; 1
 3d2:	84 3f       	cpi	r24, 0xF4	; 244
 3d4:	92 07       	cpc	r25, r18
 3d6:	d1 f7       	brne	.-12     	; 0x3cc <LCD_EnableLcd+0x24>
}
 3d8:	08 95       	ret

000003da <LCD_WaitLcd>:

	return ;
}
/*****************************************************************/
void LCD_WaitLcd(void)
{
 3da:	0f 93       	push	r16
 3dc:	1f 93       	push	r17
 3de:	df 93       	push	r29
 3e0:	cf 93       	push	r28
 3e2:	0f 92       	push	r0
 3e4:	cd b7       	in	r28, 0x3d	; 61
 3e6:	de b7       	in	r29, 0x3e	; 62
	u8 Local_u8ValBusyFlag;
	#if (LCD_u8LcdMode == LCD_u8Bit4)

	DIO_u8WritePinDir(LCD_u8D0,DIO_u8INPUT);//lcdd7=i/p .
 3e8:	80 e1       	ldi	r24, 0x10	; 16
 3ea:	60 e0       	ldi	r22, 0x00	; 0
 3ec:	0e 94 d8 00 	call	0x1b0	; 0x1b0 <DIO_u8WritePinDir>
	DIO_u8WritePinDir(LCD_u8D1,DIO_u8INPUT);//lazm el 4 yb2o i/p 3shan ama b2lb enable mn high l low bib3t lcd btb3t high
 3f0:	81 e1       	ldi	r24, 0x11	; 17
 3f2:	60 e0       	ldi	r22, 0x00	; 0
 3f4:	0e 94 d8 00 	call	0x1b0	; 0x1b0 <DIO_u8WritePinDir>
	DIO_u8WritePinDir(LCD_u8D2,DIO_u8INPUT);//lazm el 4 yb2o i/p 3shan ama b2lb enable mn high l low bib3t lcd btb3t high
 3f8:	82 e1       	ldi	r24, 0x12	; 18
 3fa:	60 e0       	ldi	r22, 0x00	; 0
 3fc:	0e 94 d8 00 	call	0x1b0	; 0x1b0 <DIO_u8WritePinDir>
	DIO_u8WritePinDir(LCD_u8D3,DIO_u8INPUT);//lazm el 4 yb2o i/p 3shan ama b2lb enable mn high l low bib3t lcd btb3t high
 400:	83 e1       	ldi	r24, 0x13	; 19
 402:	60 e0       	ldi	r22, 0x00	; 0
 404:	0e 94 d8 00 	call	0x1b0	; 0x1b0 <DIO_u8WritePinDir>
	DIO_u8WritePinVal(LCD_u8ReadWrite,DIO_u8HIGH);//rw=1.
 408:	89 e1       	ldi	r24, 0x19	; 25
 40a:	61 e0       	ldi	r22, 0x01	; 1
 40c:	0e 94 2b 01 	call	0x256	; 0x256 <DIO_u8WritePinVal>
	DIO_u8WritePinDir(LCD_u8D5,DIO_u8INPUT);
	DIO_u8WritePinDir(LCD_u8D6,DIO_u8INPUT);
	DIO_u8WritePinDir(LCD_u8D7,DIO_u8INPUT);
	DIO_u8WritePinVal(LCD_u8ReadWrite,DIO_u8HIGH);//rw=1.
	#endif
	DIO_u8WritePinVal(LCD_u8Reset,DIO_u8LOW);//rs=0.
 410:	88 e1       	ldi	r24, 0x18	; 24
 412:	60 e0       	ldi	r22, 0x00	; 0
 414:	0e 94 2b 01 	call	0x256	; 0x256 <DIO_u8WritePinVal>
 418:	8e 01       	movw	r16, r28
 41a:	0f 5f       	subi	r16, 0xFF	; 255
 41c:	1f 4f       	sbci	r17, 0xFF	; 255
	do
	{
		Local_u8ValBusyFlag=0;
 41e:	19 82       	std	Y+1, r1	; 0x01
		DIO_u8WritePinVal(LCD_u8Enable,DIO_u8HIGH);//Enable=1.
 420:	8a e1       	ldi	r24, 0x1A	; 26
 422:	61 e0       	ldi	r22, 0x01	; 1
 424:	0e 94 2b 01 	call	0x256	; 0x256 <DIO_u8WritePinVal>
 428:	80 e0       	ldi	r24, 0x00	; 0
 42a:	90 e0       	ldi	r25, 0x00	; 0
		Delay_ms_Max1s(1);
 42c:	00 00       	nop
 42e:	01 96       	adiw	r24, 0x01	; 1
 430:	21 e0       	ldi	r18, 0x01	; 1
 432:	84 3f       	cpi	r24, 0xF4	; 244
 434:	92 07       	cpc	r25, r18
 436:	d1 f7       	brne	.-12     	; 0x42c <LCD_WaitLcd+0x52>
		#if (LCD_u8LcdMode == LCD_u8Bit4)
		DIO_u8ReadPinVal(LCD_u8D3,&Local_u8ValBusyFlag );
 438:	83 e1       	ldi	r24, 0x13	; 19
 43a:	b8 01       	movw	r22, r16
 43c:	0e 94 02 01 	call	0x204	; 0x204 <DIO_u8ReadPinVal>
 440:	80 e0       	ldi	r24, 0x00	; 0
 442:	90 e0       	ldi	r25, 0x00	; 0
		#elif (LCD_u8LcdMode == LCD_u8Bit8)
		DIO_u8ReadPinVal(LCD_u8D7,&Local_u8ValBusyFlag );
		#endif
		Delay_ms_Max1s(1);
 444:	00 00       	nop
 446:	01 96       	adiw	r24, 0x01	; 1
 448:	21 e0       	ldi	r18, 0x01	; 1
 44a:	84 3f       	cpi	r24, 0xF4	; 244
 44c:	92 07       	cpc	r25, r18
 44e:	d1 f7       	brne	.-12     	; 0x444 <LCD_WaitLcd+0x6a>
		DIO_u8WritePinVal(LCD_u8Enable,DIO_u8LOW);//e=0.
 450:	8a e1       	ldi	r24, 0x1A	; 26
 452:	60 e0       	ldi	r22, 0x00	; 0
 454:	0e 94 2b 01 	call	0x256	; 0x256 <DIO_u8WritePinVal>
 458:	80 e0       	ldi	r24, 0x00	; 0
 45a:	90 e0       	ldi	r25, 0x00	; 0
		Delay_ms_Max1s(1);
 45c:	00 00       	nop
 45e:	01 96       	adiw	r24, 0x01	; 1
 460:	21 e0       	ldi	r18, 0x01	; 1
 462:	84 3f       	cpi	r24, 0xF4	; 244
 464:	92 07       	cpc	r25, r18
 466:	d1 f7       	brne	.-12     	; 0x45c <LCD_WaitLcd+0x82>

		DIO_u8WritePinVal(LCD_u8Enable,DIO_u8HIGH);//e=1
 468:	8a e1       	ldi	r24, 0x1A	; 26
 46a:	61 e0       	ldi	r22, 0x01	; 1
 46c:	0e 94 2b 01 	call	0x256	; 0x256 <DIO_u8WritePinVal>
 470:	80 e0       	ldi	r24, 0x00	; 0
 472:	90 e0       	ldi	r25, 0x00	; 0
		Delay_ms_Max1s(1);
 474:	00 00       	nop
 476:	01 96       	adiw	r24, 0x01	; 1
 478:	21 e0       	ldi	r18, 0x01	; 1
 47a:	84 3f       	cpi	r24, 0xF4	; 244
 47c:	92 07       	cpc	r25, r18
 47e:	d1 f7       	brne	.-12     	; 0x474 <LCD_WaitLcd+0x9a>
	}while(Local_u8ValBusyFlag == LCD_u8Busy);
 480:	89 81       	ldd	r24, Y+1	; 0x01
 482:	81 30       	cpi	r24, 0x01	; 1
 484:	61 f2       	breq	.-104    	; 0x41e <LCD_WaitLcd+0x44>
	DIO_u8WritePinVal(LCD_u8ReadWrite,DIO_u8LOW);//rw=0.
 486:	89 e1       	ldi	r24, 0x19	; 25
 488:	60 e0       	ldi	r22, 0x00	; 0
 48a:	0e 94 2b 01 	call	0x256	; 0x256 <DIO_u8WritePinVal>

	#if (LCD_u8LcdMode == LCD_u8Bit4)
	DIO_u8WritePinDir(LCD_u8D0,DIO_u8OUTPUT);
 48e:	80 e1       	ldi	r24, 0x10	; 16
 490:	61 e0       	ldi	r22, 0x01	; 1
 492:	0e 94 d8 00 	call	0x1b0	; 0x1b0 <DIO_u8WritePinDir>
	DIO_u8WritePinDir(LCD_u8D1,DIO_u8OUTPUT);
 496:	81 e1       	ldi	r24, 0x11	; 17
 498:	61 e0       	ldi	r22, 0x01	; 1
 49a:	0e 94 d8 00 	call	0x1b0	; 0x1b0 <DIO_u8WritePinDir>
	DIO_u8WritePinDir(LCD_u8D2,DIO_u8OUTPUT);
 49e:	82 e1       	ldi	r24, 0x12	; 18
 4a0:	61 e0       	ldi	r22, 0x01	; 1
 4a2:	0e 94 d8 00 	call	0x1b0	; 0x1b0 <DIO_u8WritePinDir>
	DIO_u8WritePinDir(LCD_u8D3,DIO_u8OUTPUT);
 4a6:	83 e1       	ldi	r24, 0x13	; 19
 4a8:	61 e0       	ldi	r22, 0x01	; 1
 4aa:	0e 94 d8 00 	call	0x1b0	; 0x1b0 <DIO_u8WritePinDir>
 4ae:	80 e0       	ldi	r24, 0x00	; 0
 4b0:	90 e0       	ldi	r25, 0x00	; 0
	Delay_ms_Max1s(1);
 4b2:	00 00       	nop
 4b4:	01 96       	adiw	r24, 0x01	; 1
 4b6:	21 e0       	ldi	r18, 0x01	; 1
 4b8:	84 3f       	cpi	r24, 0xF4	; 244
 4ba:	92 07       	cpc	r25, r18
 4bc:	d1 f7       	brne	.-12     	; 0x4b2 <LCD_WaitLcd+0xd8>
	DIO_u8WritePinDir(LCD_u8D4,DIO_u8OUTPUT);
	DIO_u8WritePinDir(LCD_u8D5,DIO_u8OUTPUT);
	DIO_u8WritePinDir(LCD_u8D6,DIO_u8OUTPUT);
	DIO_u8WritePinDir(LCD_u8D7,DIO_u8OUTPUT);
	#endif
}
 4be:	0f 90       	pop	r0
 4c0:	cf 91       	pop	r28
 4c2:	df 91       	pop	r29
 4c4:	1f 91       	pop	r17
 4c6:	0f 91       	pop	r16
 4c8:	08 95       	ret

000004ca <LCD_VoidData>:
	DIO_u8WritePinVal(LCD_u8D3,DIO_u8LOW);
}
*/
/*****************************************************************/
void LCD_VoidData(u8 LCD_u8Data)
{
 4ca:	1f 93       	push	r17
 4cc:	18 2f       	mov	r17, r24
	LCD_WaitLcd();
 4ce:	0e 94 ed 01 	call	0x3da	; 0x3da <LCD_WaitLcd>
	LCD_EnableLcd();
	//Delay_ms_Max1s(50); // delay to get things executed

	#else

	DIO_u8WritePinVal(LCD_u8Reset,DIO_u8HIGH );
 4d2:	88 e1       	ldi	r24, 0x18	; 24
 4d4:	61 e0       	ldi	r22, 0x01	; 1
 4d6:	0e 94 2b 01 	call	0x256	; 0x256 <DIO_u8WritePinVal>

	//LCD_MaskLcdPins();

	DIO_u8WritePinVal(LCD_u8D0,(LCD_u8Data&Lcd_u8Bit4 )   );
 4da:	61 2f       	mov	r22, r17
 4dc:	60 71       	andi	r22, 0x10	; 16
 4de:	80 e1       	ldi	r24, 0x10	; 16
 4e0:	0e 94 2b 01 	call	0x256	; 0x256 <DIO_u8WritePinVal>
	DIO_u8WritePinVal(LCD_u8D1,(LCD_u8Data&Lcd_u8Bit5 )   );
 4e4:	61 2f       	mov	r22, r17
 4e6:	60 72       	andi	r22, 0x20	; 32
 4e8:	81 e1       	ldi	r24, 0x11	; 17
 4ea:	0e 94 2b 01 	call	0x256	; 0x256 <DIO_u8WritePinVal>
	DIO_u8WritePinVal(LCD_u8D2,(LCD_u8Data&Lcd_u8Bit6 )   );
 4ee:	61 2f       	mov	r22, r17
 4f0:	60 74       	andi	r22, 0x40	; 64
 4f2:	82 e1       	ldi	r24, 0x12	; 18
 4f4:	0e 94 2b 01 	call	0x256	; 0x256 <DIO_u8WritePinVal>
	DIO_u8WritePinVal(LCD_u8D3,(LCD_u8Data&Lcd_u8Bit7 )   );
 4f8:	61 2f       	mov	r22, r17
 4fa:	60 78       	andi	r22, 0x80	; 128
 4fc:	83 e1       	ldi	r24, 0x13	; 19
 4fe:	0e 94 2b 01 	call	0x256	; 0x256 <DIO_u8WritePinVal>
	LCD_VoidCmd(0x01);
}
/*****************************************************************/
void LCD_EnableLcd(void)
{
	DIO_u8WritePinVal(LCD_u8Enable,DIO_u8HIGH );
 502:	8a e1       	ldi	r24, 0x1A	; 26
 504:	61 e0       	ldi	r22, 0x01	; 1
 506:	0e 94 2b 01 	call	0x256	; 0x256 <DIO_u8WritePinVal>
 50a:	80 e0       	ldi	r24, 0x00	; 0
 50c:	90 e0       	ldi	r25, 0x00	; 0
	Delay_ms_Max1s(1);
 50e:	00 00       	nop
 510:	01 96       	adiw	r24, 0x01	; 1
 512:	21 e0       	ldi	r18, 0x01	; 1
 514:	84 3f       	cpi	r24, 0xF4	; 244
 516:	92 07       	cpc	r25, r18
 518:	d1 f7       	brne	.-12     	; 0x50e <LCD_VoidData+0x44>
	DIO_u8WritePinVal(LCD_u8Enable,DIO_u8LOW );
 51a:	8a e1       	ldi	r24, 0x1A	; 26
 51c:	60 e0       	ldi	r22, 0x00	; 0
 51e:	0e 94 2b 01 	call	0x256	; 0x256 <DIO_u8WritePinVal>
 522:	80 e0       	ldi	r24, 0x00	; 0
 524:	90 e0       	ldi	r25, 0x00	; 0
	Delay_ms_Max1s(1);
 526:	00 00       	nop
 528:	01 96       	adiw	r24, 0x01	; 1
 52a:	21 e0       	ldi	r18, 0x01	; 1
 52c:	84 3f       	cpi	r24, 0xF4	; 244
 52e:	92 07       	cpc	r25, r18
 530:	d1 f7       	brne	.-12     	; 0x526 <LCD_VoidData+0x5c>

	LCD_EnableLcd();

	//LCD_MaskLcdPins();

	DIO_u8WritePinVal(LCD_u8D0,(LCD_u8Data&Lcd_u8Bit0 )   );
 532:	61 2f       	mov	r22, r17
 534:	61 70       	andi	r22, 0x01	; 1
 536:	80 e1       	ldi	r24, 0x10	; 16
 538:	0e 94 2b 01 	call	0x256	; 0x256 <DIO_u8WritePinVal>
	DIO_u8WritePinVal(LCD_u8D1,(LCD_u8Data&Lcd_u8Bit1 )   );
 53c:	61 2f       	mov	r22, r17
 53e:	62 70       	andi	r22, 0x02	; 2
 540:	81 e1       	ldi	r24, 0x11	; 17
 542:	0e 94 2b 01 	call	0x256	; 0x256 <DIO_u8WritePinVal>
	DIO_u8WritePinVal(LCD_u8D2,(LCD_u8Data&Lcd_u8Bit2 )   );
 546:	61 2f       	mov	r22, r17
 548:	64 70       	andi	r22, 0x04	; 4
 54a:	82 e1       	ldi	r24, 0x12	; 18
 54c:	0e 94 2b 01 	call	0x256	; 0x256 <DIO_u8WritePinVal>
	DIO_u8WritePinVal(LCD_u8D3,(LCD_u8Data&Lcd_u8Bit3 )   );
 550:	18 70       	andi	r17, 0x08	; 8
 552:	83 e1       	ldi	r24, 0x13	; 19
 554:	61 2f       	mov	r22, r17
 556:	0e 94 2b 01 	call	0x256	; 0x256 <DIO_u8WritePinVal>
	LCD_VoidCmd(0x01);
}
/*****************************************************************/
void LCD_EnableLcd(void)
{
	DIO_u8WritePinVal(LCD_u8Enable,DIO_u8HIGH );
 55a:	8a e1       	ldi	r24, 0x1A	; 26
 55c:	61 e0       	ldi	r22, 0x01	; 1
 55e:	0e 94 2b 01 	call	0x256	; 0x256 <DIO_u8WritePinVal>
 562:	80 e0       	ldi	r24, 0x00	; 0
 564:	90 e0       	ldi	r25, 0x00	; 0
	Delay_ms_Max1s(1);
 566:	00 00       	nop
 568:	01 96       	adiw	r24, 0x01	; 1
 56a:	21 e0       	ldi	r18, 0x01	; 1
 56c:	84 3f       	cpi	r24, 0xF4	; 244
 56e:	92 07       	cpc	r25, r18
 570:	d1 f7       	brne	.-12     	; 0x566 <LCD_VoidData+0x9c>
	DIO_u8WritePinVal(LCD_u8Enable,DIO_u8LOW );
 572:	8a e1       	ldi	r24, 0x1A	; 26
 574:	60 e0       	ldi	r22, 0x00	; 0
 576:	0e 94 2b 01 	call	0x256	; 0x256 <DIO_u8WritePinVal>
 57a:	80 e0       	ldi	r24, 0x00	; 0
 57c:	90 e0       	ldi	r25, 0x00	; 0
	Delay_ms_Max1s(1);
 57e:	00 00       	nop
 580:	01 96       	adiw	r24, 0x01	; 1
 582:	21 e0       	ldi	r18, 0x01	; 1
 584:	84 3f       	cpi	r24, 0xF4	; 244
 586:	92 07       	cpc	r25, r18
 588:	d1 f7       	brne	.-12     	; 0x57e <LCD_VoidData+0xb4>

	//Delay_ms_Max1s(50);
	#endif

	return ;
}
 58a:	1f 91       	pop	r17
 58c:	08 95       	ret

0000058e <LCD_VoidString>:

	return;
}
/*****************************************************************/
void LCD_VoidString(u8 *LCD_u8Ptr)
{
 58e:	cf 93       	push	r28
 590:	df 93       	push	r29
 592:	ec 01       	movw	r28, r24
	while(*LCD_u8Ptr)
 594:	88 81       	ld	r24, Y
 596:	88 23       	and	r24, r24
 598:	31 f0       	breq	.+12     	; 0x5a6 <LCD_VoidString+0x18>
	{
		LCD_VoidData(*LCD_u8Ptr++);
 59a:	21 96       	adiw	r28, 0x01	; 1
 59c:	0e 94 65 02 	call	0x4ca	; 0x4ca <LCD_VoidData>
	return;
}
/*****************************************************************/
void LCD_VoidString(u8 *LCD_u8Ptr)
{
	while(*LCD_u8Ptr)
 5a0:	88 81       	ld	r24, Y
 5a2:	88 23       	and	r24, r24
 5a4:	d1 f7       	brne	.-12     	; 0x59a <LCD_VoidString+0xc>
	{
		LCD_VoidData(*LCD_u8Ptr++);
	}
	return;
}
 5a6:	df 91       	pop	r29
 5a8:	cf 91       	pop	r28
 5aa:	08 95       	ret

000005ac <LCD_VoidCmd>:
#include "LCD_interface.h"


/*****************************************************************/
void LCD_VoidCmd(u8 LCD_u8Command)
{
 5ac:	1f 93       	push	r17
 5ae:	18 2f       	mov	r17, r24
	//LCD_u8Port=LCD_u8Command;
	LCD_WaitLcd();
 5b0:	0e 94 ed 01 	call	0x3da	; 0x3da <LCD_WaitLcd>

	//Delay_ms_Max1s(50);

	#else

	DIO_u8WritePinVal(LCD_u8Reset,DIO_u8LOW );
 5b4:	88 e1       	ldi	r24, 0x18	; 24
 5b6:	60 e0       	ldi	r22, 0x00	; 0
 5b8:	0e 94 2b 01 	call	0x256	; 0x256 <DIO_u8WritePinVal>

	//LCD_MaskLcdPins();

	DIO_u8WritePinVal(LCD_u8D0,(LCD_u8Command&Lcd_u8Bit4 )  );
 5bc:	61 2f       	mov	r22, r17
 5be:	60 71       	andi	r22, 0x10	; 16
 5c0:	80 e1       	ldi	r24, 0x10	; 16
 5c2:	0e 94 2b 01 	call	0x256	; 0x256 <DIO_u8WritePinVal>
	DIO_u8WritePinVal(LCD_u8D1,(LCD_u8Command&Lcd_u8Bit5 )  );
 5c6:	61 2f       	mov	r22, r17
 5c8:	60 72       	andi	r22, 0x20	; 32
 5ca:	81 e1       	ldi	r24, 0x11	; 17
 5cc:	0e 94 2b 01 	call	0x256	; 0x256 <DIO_u8WritePinVal>
	DIO_u8WritePinVal(LCD_u8D2,(LCD_u8Command&Lcd_u8Bit6 )  );
 5d0:	61 2f       	mov	r22, r17
 5d2:	60 74       	andi	r22, 0x40	; 64
 5d4:	82 e1       	ldi	r24, 0x12	; 18
 5d6:	0e 94 2b 01 	call	0x256	; 0x256 <DIO_u8WritePinVal>
	DIO_u8WritePinVal(LCD_u8D3,(LCD_u8Command&Lcd_u8Bit7 )  );
 5da:	61 2f       	mov	r22, r17
 5dc:	60 78       	andi	r22, 0x80	; 128
 5de:	83 e1       	ldi	r24, 0x13	; 19
 5e0:	0e 94 2b 01 	call	0x256	; 0x256 <DIO_u8WritePinVal>
	LCD_VoidCmd(0x01);
}
/*****************************************************************/
void LCD_EnableLcd(void)
{
	DIO_u8WritePinVal(LCD_u8Enable,DIO_u8HIGH );
 5e4:	8a e1       	ldi	r24, 0x1A	; 26
 5e6:	61 e0       	ldi	r22, 0x01	; 1
 5e8:	0e 94 2b 01 	call	0x256	; 0x256 <DIO_u8WritePinVal>
 5ec:	80 e0       	ldi	r24, 0x00	; 0
 5ee:	90 e0       	ldi	r25, 0x00	; 0
	Delay_ms_Max1s(1);
 5f0:	00 00       	nop
 5f2:	01 96       	adiw	r24, 0x01	; 1
 5f4:	21 e0       	ldi	r18, 0x01	; 1
 5f6:	84 3f       	cpi	r24, 0xF4	; 244
 5f8:	92 07       	cpc	r25, r18
 5fa:	d1 f7       	brne	.-12     	; 0x5f0 <LCD_VoidCmd+0x44>
	DIO_u8WritePinVal(LCD_u8Enable,DIO_u8LOW );
 5fc:	8a e1       	ldi	r24, 0x1A	; 26
 5fe:	60 e0       	ldi	r22, 0x00	; 0
 600:	0e 94 2b 01 	call	0x256	; 0x256 <DIO_u8WritePinVal>
 604:	80 e0       	ldi	r24, 0x00	; 0
 606:	90 e0       	ldi	r25, 0x00	; 0
	Delay_ms_Max1s(1);
 608:	00 00       	nop
 60a:	01 96       	adiw	r24, 0x01	; 1
 60c:	21 e0       	ldi	r18, 0x01	; 1
 60e:	84 3f       	cpi	r24, 0xF4	; 244
 610:	92 07       	cpc	r25, r18
 612:	d1 f7       	brne	.-12     	; 0x608 <LCD_VoidCmd+0x5c>

	LCD_EnableLcd();

	//LCD_MaskLcdPins();

	DIO_u8WritePinVal(LCD_u8D0,(LCD_u8Command&Lcd_u8Bit0 )   );
 614:	61 2f       	mov	r22, r17
 616:	61 70       	andi	r22, 0x01	; 1
 618:	80 e1       	ldi	r24, 0x10	; 16
 61a:	0e 94 2b 01 	call	0x256	; 0x256 <DIO_u8WritePinVal>
	DIO_u8WritePinVal(LCD_u8D1,(LCD_u8Command&Lcd_u8Bit1 )   );
 61e:	61 2f       	mov	r22, r17
 620:	62 70       	andi	r22, 0x02	; 2
 622:	81 e1       	ldi	r24, 0x11	; 17
 624:	0e 94 2b 01 	call	0x256	; 0x256 <DIO_u8WritePinVal>
	DIO_u8WritePinVal(LCD_u8D2,(LCD_u8Command&Lcd_u8Bit2 )   );
 628:	61 2f       	mov	r22, r17
 62a:	64 70       	andi	r22, 0x04	; 4
 62c:	82 e1       	ldi	r24, 0x12	; 18
 62e:	0e 94 2b 01 	call	0x256	; 0x256 <DIO_u8WritePinVal>
	DIO_u8WritePinVal(LCD_u8D3,(LCD_u8Command&Lcd_u8Bit3 )   );
 632:	18 70       	andi	r17, 0x08	; 8
 634:	83 e1       	ldi	r24, 0x13	; 19
 636:	61 2f       	mov	r22, r17
 638:	0e 94 2b 01 	call	0x256	; 0x256 <DIO_u8WritePinVal>
	LCD_VoidCmd(0x01);
}
/*****************************************************************/
void LCD_EnableLcd(void)
{
	DIO_u8WritePinVal(LCD_u8Enable,DIO_u8HIGH );
 63c:	8a e1       	ldi	r24, 0x1A	; 26
 63e:	61 e0       	ldi	r22, 0x01	; 1
 640:	0e 94 2b 01 	call	0x256	; 0x256 <DIO_u8WritePinVal>
 644:	80 e0       	ldi	r24, 0x00	; 0
 646:	90 e0       	ldi	r25, 0x00	; 0
	Delay_ms_Max1s(1);
 648:	00 00       	nop
 64a:	01 96       	adiw	r24, 0x01	; 1
 64c:	21 e0       	ldi	r18, 0x01	; 1
 64e:	84 3f       	cpi	r24, 0xF4	; 244
 650:	92 07       	cpc	r25, r18
 652:	d1 f7       	brne	.-12     	; 0x648 <LCD_VoidCmd+0x9c>
	DIO_u8WritePinVal(LCD_u8Enable,DIO_u8LOW );
 654:	8a e1       	ldi	r24, 0x1A	; 26
 656:	60 e0       	ldi	r22, 0x00	; 0
 658:	0e 94 2b 01 	call	0x256	; 0x256 <DIO_u8WritePinVal>
 65c:	80 e0       	ldi	r24, 0x00	; 0
 65e:	90 e0       	ldi	r25, 0x00	; 0
	Delay_ms_Max1s(1);
 660:	00 00       	nop
 662:	01 96       	adiw	r24, 0x01	; 1
 664:	21 e0       	ldi	r18, 0x01	; 1
 666:	84 3f       	cpi	r24, 0xF4	; 244
 668:	92 07       	cpc	r25, r18
 66a:	d1 f7       	brne	.-12     	; 0x660 <LCD_VoidCmd+0xb4>

	//Delay_ms_Max1s(50);
	#endif

	return;
}
 66c:	1f 91       	pop	r17
 66e:	08 95       	ret

00000670 <LCD_VoidClearScreen>:
}
/*********************************************************************************************/

void LCD_VoidClearScreen(void)
{
	LCD_VoidCmd(0x01);
 670:	81 e0       	ldi	r24, 0x01	; 1
 672:	0e 94 d6 02 	call	0x5ac	; 0x5ac <LCD_VoidCmd>
}
 676:	08 95       	ret

00000678 <LCD_VoidGotoxy>:
}
/*********************************************************************************************/

void LCD_VoidGotoxy(u8 LCD_u8x,u8 LCD_u8y)//(rkm el3mod,rkm elsf)
 {
    if(LCD_u8y == 1)
 678:	61 30       	cpi	r22, 0x01	; 1
 67a:	21 f0       	breq	.+8      	; 0x684 <LCD_VoidGotoxy+0xc>
    {
        LCD_VoidCmd(0x80+LCD_u8x);
    }
     else
     {
        LCD_VoidCmd(0xc0+LCD_u8x);
 67c:	80 54       	subi	r24, 0x40	; 64
 67e:	0e 94 d6 02 	call	0x5ac	; 0x5ac <LCD_VoidCmd>
 682:	08 95       	ret

void LCD_VoidGotoxy(u8 LCD_u8x,u8 LCD_u8y)//(rkm el3mod,rkm elsf)
 {
    if(LCD_u8y == 1)
    {
        LCD_VoidCmd(0x80+LCD_u8x);
 684:	80 58       	subi	r24, 0x80	; 128
 686:	0e 94 d6 02 	call	0x5ac	; 0x5ac <LCD_VoidCmd>
 68a:	08 95       	ret

0000068c <LCD_VoidRow>:
}
/*********************************************************************************************/

void LCD_VoidRow(u8 LCD_u8no)//elsf elawl wla eltany
{
	if (LCD_u8no == 1)
 68c:	81 30       	cpi	r24, 0x01	; 1
 68e:	39 f0       	breq	.+14     	; 0x69e <LCD_VoidRow+0x12>
	{
		LCD_VoidCmd(0x80); // sf awl
	}
	if (LCD_u8no ==2)
 690:	82 30       	cpi	r24, 0x02	; 2
 692:	09 f0       	breq	.+2      	; 0x696 <LCD_VoidRow+0xa>
 694:	08 95       	ret
	{
		LCD_VoidCmd(0xC0); //sf tany
 696:	80 ec       	ldi	r24, 0xC0	; 192
 698:	0e 94 d6 02 	call	0x5ac	; 0x5ac <LCD_VoidCmd>
 69c:	08 95       	ret

void LCD_VoidRow(u8 LCD_u8no)//elsf elawl wla eltany
{
	if (LCD_u8no == 1)
	{
		LCD_VoidCmd(0x80); // sf awl
 69e:	80 e8       	ldi	r24, 0x80	; 128
 6a0:	0e 94 d6 02 	call	0x5ac	; 0x5ac <LCD_VoidCmd>
 6a4:	08 95       	ret

000006a6 <LCD_VoidInit>:
	Delay_ms_Max1s(1);

	LCD_VoidCmd(0x80); // --- go to first line and --0 is for 0th position
	Delay_ms_Max1s(1);
	#else
	LCD_VoidCmd(0x33);       //to initialize LCD in 2 lines, 5X7 dots and 4bit mode.
 6a6:	83 e3       	ldi	r24, 0x33	; 51
 6a8:	0e 94 d6 02 	call	0x5ac	; 0x5ac <LCD_VoidCmd>
 6ac:	80 e0       	ldi	r24, 0x00	; 0
 6ae:	90 e0       	ldi	r25, 0x00	; 0
	Delay_ms_Max1s(20);
 6b0:	00 00       	nop
 6b2:	01 96       	adiw	r24, 0x01	; 1
 6b4:	27 e2       	ldi	r18, 0x27	; 39
 6b6:	80 31       	cpi	r24, 0x10	; 16
 6b8:	92 07       	cpc	r25, r18
 6ba:	d1 f7       	brne	.-12     	; 0x6b0 <LCD_VoidInit+0xa>
	LCD_VoidCmd(0x32);       // Display no cursor – no blink.
 6bc:	82 e3       	ldi	r24, 0x32	; 50
 6be:	0e 94 d6 02 	call	0x5ac	; 0x5ac <LCD_VoidCmd>
 6c2:	80 e0       	ldi	r24, 0x00	; 0
 6c4:	90 e0       	ldi	r25, 0x00	; 0
	Delay_ms_Max1s(10);
 6c6:	00 00       	nop
 6c8:	01 96       	adiw	r24, 0x01	; 1
 6ca:	23 e1       	ldi	r18, 0x13	; 19
 6cc:	88 38       	cpi	r24, 0x88	; 136
 6ce:	92 07       	cpc	r25, r18
 6d0:	d1 f7       	brne	.-12     	; 0x6c6 <LCD_VoidInit+0x20>
	LCD_VoidCmd(0x28);       // Automatic Increment – No Display shift.
 6d2:	88 e2       	ldi	r24, 0x28	; 40
 6d4:	0e 94 d6 02 	call	0x5ac	; 0x5ac <LCD_VoidCmd>
	LCD_VoidCmd(0x0c);       // Address DDRAM with 0 offset 80h.
 6d8:	8c e0       	ldi	r24, 0x0C	; 12
 6da:	0e 94 d6 02 	call	0x5ac	; 0x5ac <LCD_VoidCmd>
	LCD_VoidCmd(0x06);
 6de:	86 e0       	ldi	r24, 0x06	; 6
 6e0:	0e 94 d6 02 	call	0x5ac	; 0x5ac <LCD_VoidCmd>
 6e4:	80 e0       	ldi	r24, 0x00	; 0
 6e6:	90 e0       	ldi	r25, 0x00	; 0
	Delay_ms_Max1s(1);
 6e8:	00 00       	nop
 6ea:	01 96       	adiw	r24, 0x01	; 1
 6ec:	21 e0       	ldi	r18, 0x01	; 1
 6ee:	84 3f       	cpi	r24, 0xF4	; 244
 6f0:	92 07       	cpc	r25, r18
 6f2:	d1 f7       	brne	.-12     	; 0x6e8 <LCD_VoidInit+0x42>
	LCD_VoidCmd(0x01);
 6f4:	81 e0       	ldi	r24, 0x01	; 1
 6f6:	0e 94 d6 02 	call	0x5ac	; 0x5ac <LCD_VoidCmd>
 6fa:	80 e0       	ldi	r24, 0x00	; 0
 6fc:	90 e0       	ldi	r25, 0x00	; 0
	Delay_ms_Max1s(1);
 6fe:	00 00       	nop
 700:	01 96       	adiw	r24, 0x01	; 1
 702:	21 e0       	ldi	r18, 0x01	; 1
 704:	84 3f       	cpi	r24, 0xF4	; 244
 706:	92 07       	cpc	r25, r18
 708:	d1 f7       	brne	.-12     	; 0x6fe <LCD_VoidInit+0x58>
	#endif

	return;
}
 70a:	08 95       	ret

0000070c <LCD_ClearLcd>:
	return;
}
/*****************************************************************/
void LCD_ClearLcd(void)
{
	LCD_VoidCmd(0x01);
 70c:	81 e0       	ldi	r24, 0x01	; 1
 70e:	0e 94 d6 02 	call	0x5ac	; 0x5ac <LCD_VoidCmd>
}
 712:	08 95       	ret

00000714 <LCD_VoidSendStringxy>:
     }
 }
/*********************************************************************************************/

void LCD_VoidSendStringxy(u8 *LCD_u8str,u8 LCD_u8x,u8 LCD_u8y)//("aktb ely 3aizo",rkm anhih 7th fy el3mod ,rkm el sf)
{
 714:	cf 93       	push	r28
 716:	df 93       	push	r29
 718:	ec 01       	movw	r28, r24
}
/*********************************************************************************************/

void LCD_VoidGotoxy(u8 LCD_u8x,u8 LCD_u8y)//(rkm el3mod,rkm elsf)
 {
    if(LCD_u8y == 1)
 71a:	41 30       	cpi	r20, 0x01	; 1
 71c:	71 f0       	breq	.+28     	; 0x73a <LCD_VoidSendStringxy+0x26>
    {
        LCD_VoidCmd(0x80+LCD_u8x);
    }
     else
     {
        LCD_VoidCmd(0xc0+LCD_u8x);
 71e:	86 2f       	mov	r24, r22
 720:	80 54       	subi	r24, 0x40	; 64
 722:	0e 94 d6 02 	call	0x5ac	; 0x5ac <LCD_VoidCmd>
 726:	03 c0       	rjmp	.+6      	; 0x72e <LCD_VoidSendStringxy+0x1a>
/*****************************************************************/
void LCD_VoidString(u8 *LCD_u8Ptr)
{
	while(*LCD_u8Ptr)
	{
		LCD_VoidData(*LCD_u8Ptr++);
 728:	21 96       	adiw	r28, 0x01	; 1
 72a:	0e 94 65 02 	call	0x4ca	; 0x4ca <LCD_VoidData>
	return;
}
/*****************************************************************/
void LCD_VoidString(u8 *LCD_u8Ptr)
{
	while(*LCD_u8Ptr)
 72e:	88 81       	ld	r24, Y
 730:	88 23       	and	r24, r24
 732:	d1 f7       	brne	.-12     	; 0x728 <LCD_VoidSendStringxy+0x14>

void LCD_VoidSendStringxy(u8 *LCD_u8str,u8 LCD_u8x,u8 LCD_u8y)//("aktb ely 3aizo",rkm anhih 7th fy el3mod ,rkm el sf)
{
     LCD_VoidGotoxy(LCD_u8x,LCD_u8y);
     LCD_VoidString(LCD_u8str);
}
 734:	df 91       	pop	r29
 736:	cf 91       	pop	r28
 738:	08 95       	ret

void LCD_VoidGotoxy(u8 LCD_u8x,u8 LCD_u8y)//(rkm el3mod,rkm elsf)
 {
    if(LCD_u8y == 1)
    {
        LCD_VoidCmd(0x80+LCD_u8x);
 73a:	86 2f       	mov	r24, r22
 73c:	80 58       	subi	r24, 0x80	; 128
 73e:	0e 94 d6 02 	call	0x5ac	; 0x5ac <LCD_VoidCmd>
 742:	f5 cf       	rjmp	.-22     	; 0x72e <LCD_VoidSendStringxy+0x1a>

00000744 <LCD_VoidRowString>:
	}
}
/*********************************************************************************************/

void LCD_VoidRowString (u8 LCD_u8row,u8 *LCD_u8String) //(rkm el sf,"el2sm ely 3ais tktbo")
{
 744:	cf 93       	push	r28
 746:	df 93       	push	r29
 748:	eb 01       	movw	r28, r22
}
/*********************************************************************************************/

void LCD_VoidRow(u8 LCD_u8no)//elsf elawl wla eltany
{
	if (LCD_u8no == 1)
 74a:	81 30       	cpi	r24, 0x01	; 1
 74c:	81 f0       	breq	.+32     	; 0x76e <LCD_VoidRowString+0x2a>
	{
		LCD_VoidCmd(0x80); // sf awl
	}
	if (LCD_u8no ==2)
 74e:	82 30       	cpi	r24, 0x02	; 2
 750:	21 f4       	brne	.+8      	; 0x75a <LCD_VoidRowString+0x16>
 752:	09 c0       	rjmp	.+18     	; 0x766 <LCD_VoidRowString+0x22>
{
	LCD_VoidRow(LCD_u8row);
	///*
	 while (*LCD_u8String)
	{
		LCD_VoidData(*LCD_u8String++);
 754:	21 96       	adiw	r28, 0x01	; 1
 756:	0e 94 65 02 	call	0x4ca	; 0x4ca <LCD_VoidData>

void LCD_VoidRowString (u8 LCD_u8row,u8 *LCD_u8String) //(rkm el sf,"el2sm ely 3ais tktbo")
{
	LCD_VoidRow(LCD_u8row);
	///*
	 while (*LCD_u8String)
 75a:	88 81       	ld	r24, Y
 75c:	88 23       	and	r24, r24
 75e:	d1 f7       	brne	.-12     	; 0x754 <LCD_VoidRowString+0x10>
	{
		LCD_VoidData(*LCD_u8String++);
	}
	//*/
	//LCD_VoidString(LCD_u8String);
}
 760:	df 91       	pop	r29
 762:	cf 91       	pop	r28
 764:	08 95       	ret
	{
		LCD_VoidCmd(0x80); // sf awl
	}
	if (LCD_u8no ==2)
	{
		LCD_VoidCmd(0xC0); //sf tany
 766:	80 ec       	ldi	r24, 0xC0	; 192
 768:	0e 94 d6 02 	call	0x5ac	; 0x5ac <LCD_VoidCmd>
 76c:	f6 cf       	rjmp	.-20     	; 0x75a <LCD_VoidRowString+0x16>

void LCD_VoidRow(u8 LCD_u8no)//elsf elawl wla eltany
{
	if (LCD_u8no == 1)
	{
		LCD_VoidCmd(0x80); // sf awl
 76e:	80 e8       	ldi	r24, 0x80	; 128
 770:	0e 94 d6 02 	call	0x5ac	; 0x5ac <LCD_VoidCmd>
 774:	f2 cf       	rjmp	.-28     	; 0x75a <LCD_VoidRowString+0x16>

00000776 <TACTILE_voidInit>:

/*Comment!: Initialization function */
extern void TACTILE_voidInit(void)
{

}
 776:	08 95       	ret

00000778 <TACTILE_u8GetState>:
													,TACTILE_u8Switch9Type ,TACTILE_u8Switch10Type,TACTILE_u8Switch11Type,TACTILE_u8Switch12Type
													,TACTILE_u8Switch13Type,TACTILE_u8Switch14Type,TACTILE_u8Switch15Type,TACTILE_u8Switch16Type};

/*Comment!: Get Tactile State */
extern u8 TACTILE_u8GetState(u8 Copy_u8SwitchNumber, u8* Copy_u8PtrToVal)
{
 778:	ef 92       	push	r14
 77a:	ff 92       	push	r15
 77c:	0f 93       	push	r16
 77e:	1f 93       	push	r17
 780:	df 93       	push	r29
 782:	cf 93       	push	r28
 784:	0f 92       	push	r0
 786:	cd b7       	in	r28, 0x3d	; 61
 788:	de b7       	in	r29, 0x3e	; 62
 78a:	7b 01       	movw	r14, r22
//	u8 TACTILE_u8=TACTILE_u8TactileType[Copy_u8SwitchNumber];
	static u8 TACTILE_u8State[TACTILE_u8SWITCHNUM]		=	{TACTILE_u8RELEASED};
	static u8 TACTILE_u8CounterUp[TACTILE_u8SWITCHNUM]	= 	{u8ZERO};
	static u8 TACTILE_u8CounterDown[TACTILE_u8SWITCHNUM]= 	{u8ZERO};
	static u8 TACTILE_u8TactileVal[TACTILE_u8SWITCHNUM]= 	{TACTILE_u8RELEASED};
	if(Copy_u8SwitchNumber > TACTILE_u8MAXNUM)
 78c:	81 31       	cpi	r24, 0x11	; 17
 78e:	48 f0       	brcs	.+18     	; 0x7a2 <TACTILE_u8GetState+0x2a>
 790:	80 e0       	ldi	r24, 0x00	; 0
			break;
		}
	}

	return Local_u8Error;
}
 792:	0f 90       	pop	r0
 794:	cf 91       	pop	r28
 796:	df 91       	pop	r29
 798:	1f 91       	pop	r17
 79a:	0f 91       	pop	r16
 79c:	ff 90       	pop	r15
 79e:	ef 90       	pop	r14
 7a0:	08 95       	ret
	if(Copy_u8SwitchNumber > TACTILE_u8MAXNUM)
	{
		Local_u8Error=ERROR;
	}
	else{
		DIO_u8ReadPinVal(TACTILE_u8TactilePins[Copy_u8SwitchNumber],&Local_u8TactileVal);
 7a2:	08 2f       	mov	r16, r24
 7a4:	10 e0       	ldi	r17, 0x00	; 0
 7a6:	f8 01       	movw	r30, r16
 7a8:	e5 57       	subi	r30, 0x75	; 117
 7aa:	ff 4f       	sbci	r31, 0xFF	; 255
 7ac:	80 81       	ld	r24, Z
 7ae:	be 01       	movw	r22, r28
 7b0:	6f 5f       	subi	r22, 0xFF	; 255
 7b2:	7f 4f       	sbci	r23, 0xFF	; 255
 7b4:	0e 94 02 01 	call	0x204	; 0x204 <DIO_u8ReadPinVal>
		switch(TACTILE_u8State[Copy_u8SwitchNumber])
 7b8:	d8 01       	movw	r26, r16
 7ba:	a1 54       	subi	r26, 0x41	; 65
 7bc:	bf 4f       	sbci	r27, 0xFF	; 255
 7be:	2c 91       	ld	r18, X
 7c0:	21 30       	cpi	r18, 0x01	; 1
 7c2:	61 f1       	breq	.+88     	; 0x81c <TACTILE_u8GetState+0xa4>
 7c4:	21 30       	cpi	r18, 0x01	; 1
 7c6:	80 f4       	brcc	.+32     	; 0x7e8 <TACTILE_u8GetState+0x70>
		{
		case TACTILE_u8RELEASED:
			if(Local_u8TactileVal==TACTILE_u8TactileType[Copy_u8SwitchNumber])
 7c8:	f8 01       	movw	r30, r16
 7ca:	e5 56       	subi	r30, 0x65	; 101
 7cc:	ff 4f       	sbci	r31, 0xFF	; 255
 7ce:	90 81       	ld	r25, Z
 7d0:	89 81       	ldd	r24, Y+1	; 0x01
 7d2:	98 17       	cp	r25, r24
 7d4:	c1 f1       	breq	.+112    	; 0x846 <TACTILE_u8GetState+0xce>
				TACTILE_u8State[Copy_u8SwitchNumber]=TACTILE_u8BOUNCING;
				TACTILE_u8CounterDown[Copy_u8SwitchNumber]=u8ZERO;
            }
			else if (Local_u8TactileVal!=TACTILE_u8TactileType[Copy_u8SwitchNumber])
            {
				TACTILE_u8TactileVal[Copy_u8SwitchNumber]=TACTILE_u8RELEASED;
 7d6:	f8 01       	movw	r30, r16
 7d8:	ea 54       	subi	r30, 0x4A	; 74
 7da:	ff 4f       	sbci	r31, 0xFF	; 255
 7dc:	10 82       	st	Z, r1
			}
			else{
			}
			*Copy_u8PtrToVal=TACTILE_u8TactileVal[Copy_u8SwitchNumber];
 7de:	80 81       	ld	r24, Z
 7e0:	f7 01       	movw	r30, r14
 7e2:	80 83       	st	Z, r24
 7e4:	81 e0       	ldi	r24, 0x01	; 1
 7e6:	d5 cf       	rjmp	.-86     	; 0x792 <TACTILE_u8GetState+0x1a>
	{
		Local_u8Error=ERROR;
	}
	else{
		DIO_u8ReadPinVal(TACTILE_u8TactilePins[Copy_u8SwitchNumber],&Local_u8TactileVal);
		switch(TACTILE_u8State[Copy_u8SwitchNumber])
 7e8:	22 30       	cpi	r18, 0x02	; 2
 7ea:	11 f0       	breq	.+4      	; 0x7f0 <TACTILE_u8GetState+0x78>
            {
                TACTILE_u8TactileVal[Copy_u8SwitchNumber]=TACTILE_u8PRESSED;
			}
			else{
			}
			*Copy_u8PtrToVal=TACTILE_u8TactileVal[Copy_u8SwitchNumber];
 7ec:	81 e0       	ldi	r24, 0x01	; 1
 7ee:	d1 cf       	rjmp	.-94     	; 0x792 <TACTILE_u8GetState+0x1a>
			else{
			}
			*Copy_u8PtrToVal=TACTILE_u8TactileVal[Copy_u8SwitchNumber];
			break;
		case TACTILE_u8BOUNCING:
			if(Local_u8TactileVal==TACTILE_u8TactileType[Copy_u8SwitchNumber])
 7f0:	f8 01       	movw	r30, r16
 7f2:	e5 56       	subi	r30, 0x65	; 101
 7f4:	ff 4f       	sbci	r31, 0xFF	; 255
 7f6:	90 81       	ld	r25, Z
 7f8:	89 81       	ldd	r24, Y+1	; 0x01
 7fa:	98 17       	cp	r25, r24
 7fc:	a1 f1       	breq	.+104    	; 0x866 <__stack+0x7>
				TACTILE_u8CounterUp[Copy_u8SwitchNumber]++;
				TACTILE_u8CounterDown[Copy_u8SwitchNumber]=u8ZERO;
			}
			else if (Local_u8TactileVal!=TACTILE_u8TactileType[Copy_u8SwitchNumber])
            {
                TACTILE_u8CounterDown[Copy_u8SwitchNumber]++;
 7fe:	f8 01       	movw	r30, r16
 800:	e7 54       	subi	r30, 0x47	; 71
 802:	ff 4f       	sbci	r31, 0xFF	; 255
 804:	80 81       	ld	r24, Z
 806:	8f 5f       	subi	r24, 0xFF	; 255
 808:	80 83       	st	Z, r24
				TACTILE_u8CounterUp[Copy_u8SwitchNumber]=u8ZERO;
 80a:	04 54       	subi	r16, 0x44	; 68
 80c:	1f 4f       	sbci	r17, 0xFF	; 255
 80e:	f8 01       	movw	r30, r16
 810:	10 82       	st	Z, r1
			{
				TACTILE_u8State[Copy_u8SwitchNumber]=TACTILE_u8PRESSED;
			}
			else{
			}
			if(TACTILE_u8CounterDown[Copy_u8SwitchNumber]>=TACTILE_u8MAXCOUNT)
 812:	8a 30       	cpi	r24, 0x0A	; 10
 814:	58 f3       	brcs	.-42     	; 0x7ec <TACTILE_u8GetState+0x74>
			{
				TACTILE_u8State[Copy_u8SwitchNumber]=TACTILE_u8RELEASED;
 816:	1c 92       	st	X, r1
 818:	81 e0       	ldi	r24, 0x01	; 1
 81a:	bb cf       	rjmp	.-138    	; 0x792 <TACTILE_u8GetState+0x1a>
			}
			else{
			}
			break;
		case TACTILE_u8PRESSED:
			if (Local_u8TactileVal!=TACTILE_u8TactileType[Copy_u8SwitchNumber])
 81c:	f8 01       	movw	r30, r16
 81e:	e5 56       	subi	r30, 0x65	; 101
 820:	ff 4f       	sbci	r31, 0xFF	; 255
 822:	90 81       	ld	r25, Z
 824:	89 81       	ldd	r24, Y+1	; 0x01
 826:	98 17       	cp	r25, r24
 828:	c1 f0       	breq	.+48     	; 0x85a <TACTILE_u8GetState+0xe2>
            {
				TACTILE_u8CounterUp[Copy_u8SwitchNumber]=u8ZERO;
 82a:	f8 01       	movw	r30, r16
 82c:	e4 54       	subi	r30, 0x44	; 68
 82e:	ff 4f       	sbci	r31, 0xFF	; 255
 830:	10 82       	st	Z, r1
				TACTILE_u8State[Copy_u8SwitchNumber]=TACTILE_u8BOUNCING;
 832:	82 e0       	ldi	r24, 0x02	; 2
 834:	8c 93       	st	X, r24
 836:	f8 01       	movw	r30, r16
 838:	ea 54       	subi	r30, 0x4A	; 74
 83a:	ff 4f       	sbci	r31, 0xFF	; 255
 83c:	80 81       	ld	r24, Z
            {
                TACTILE_u8TactileVal[Copy_u8SwitchNumber]=TACTILE_u8PRESSED;
			}
			else{
			}
			*Copy_u8PtrToVal=TACTILE_u8TactileVal[Copy_u8SwitchNumber];
 83e:	f7 01       	movw	r30, r14
 840:	80 83       	st	Z, r24
 842:	81 e0       	ldi	r24, 0x01	; 1
 844:	a6 cf       	rjmp	.-180    	; 0x792 <TACTILE_u8GetState+0x1a>
		switch(TACTILE_u8State[Copy_u8SwitchNumber])
		{
		case TACTILE_u8RELEASED:
			if(Local_u8TactileVal==TACTILE_u8TactileType[Copy_u8SwitchNumber])
			{
				TACTILE_u8State[Copy_u8SwitchNumber]=TACTILE_u8BOUNCING;
 846:	82 e0       	ldi	r24, 0x02	; 2
 848:	8c 93       	st	X, r24
				TACTILE_u8CounterDown[Copy_u8SwitchNumber]=u8ZERO;
 84a:	f8 01       	movw	r30, r16
 84c:	e7 54       	subi	r30, 0x47	; 71
 84e:	ff 4f       	sbci	r31, 0xFF	; 255
 850:	10 82       	st	Z, r1
 852:	f8 01       	movw	r30, r16
 854:	ea 54       	subi	r30, 0x4A	; 74
 856:	ff 4f       	sbci	r31, 0xFF	; 255
 858:	c2 cf       	rjmp	.-124    	; 0x7de <TACTILE_u8GetState+0x66>
				TACTILE_u8CounterUp[Copy_u8SwitchNumber]=u8ZERO;
				TACTILE_u8State[Copy_u8SwitchNumber]=TACTILE_u8BOUNCING;
			}
			else if (Local_u8TactileVal==TACTILE_u8TactileType[Copy_u8SwitchNumber])
            {
                TACTILE_u8TactileVal[Copy_u8SwitchNumber]=TACTILE_u8PRESSED;
 85a:	f8 01       	movw	r30, r16
 85c:	ea 54       	subi	r30, 0x4A	; 74
 85e:	ff 4f       	sbci	r31, 0xFF	; 255
 860:	20 83       	st	Z, r18
 862:	82 2f       	mov	r24, r18
 864:	ec cf       	rjmp	.-40     	; 0x83e <TACTILE_u8GetState+0xc6>
			*Copy_u8PtrToVal=TACTILE_u8TactileVal[Copy_u8SwitchNumber];
			break;
		case TACTILE_u8BOUNCING:
			if(Local_u8TactileVal==TACTILE_u8TactileType[Copy_u8SwitchNumber])
			{
				TACTILE_u8CounterUp[Copy_u8SwitchNumber]++;
 866:	f8 01       	movw	r30, r16
 868:	e4 54       	subi	r30, 0x44	; 68
 86a:	ff 4f       	sbci	r31, 0xFF	; 255
 86c:	80 81       	ld	r24, Z
 86e:	8f 5f       	subi	r24, 0xFF	; 255
 870:	80 83       	st	Z, r24
				TACTILE_u8CounterDown[Copy_u8SwitchNumber]=u8ZERO;
 872:	07 54       	subi	r16, 0x47	; 71
 874:	1f 4f       	sbci	r17, 0xFF	; 255
 876:	f8 01       	movw	r30, r16
 878:	10 82       	st	Z, r1
                TACTILE_u8CounterDown[Copy_u8SwitchNumber]++;
				TACTILE_u8CounterUp[Copy_u8SwitchNumber]=u8ZERO;
			}
			else{
			}
			if(TACTILE_u8CounterUp[Copy_u8SwitchNumber]>=TACTILE_u8MAXCOUNT)
 87a:	8a 30       	cpi	r24, 0x0A	; 10
 87c:	08 f4       	brcc	.+2      	; 0x880 <__stack+0x21>
 87e:	b6 cf       	rjmp	.-148    	; 0x7ec <TACTILE_u8GetState+0x74>
			{
				TACTILE_u8State[Copy_u8SwitchNumber]=TACTILE_u8PRESSED;
 880:	81 e0       	ldi	r24, 0x01	; 1
 882:	8c 93       	st	X, r24
 884:	86 cf       	rjmp	.-244    	; 0x792 <TACTILE_u8GetState+0x1a>

00000886 <Local_voidDisplay>:
		break;
	}
}

void Local_voidDisplay(u8 Copy_u8Temp,u8 Copy_u8Speed)
{
 886:	0f 93       	push	r16
 888:	1f 93       	push	r17
 88a:	18 2f       	mov	r17, r24
 88c:	06 2f       	mov	r16, r22
	LCD_VoidGotoxy(8,1);
 88e:	88 e0       	ldi	r24, 0x08	; 8
 890:	61 e0       	ldi	r22, 0x01	; 1
 892:	0e 94 3c 03 	call	0x678	; 0x678 <LCD_VoidGotoxy>
	LCD_VoidData((u8)(Copy_u8Temp/10)+48);
 896:	81 2f       	mov	r24, r17
 898:	6a e0       	ldi	r22, 0x0A	; 10
 89a:	0e 94 a4 05 	call	0xb48	; 0xb48 <__udivmodqi4>
 89e:	80 5d       	subi	r24, 0xD0	; 208
 8a0:	0e 94 65 02 	call	0x4ca	; 0x4ca <LCD_VoidData>
	LCD_VoidData((u8)(Copy_u8Temp%10)+48);
 8a4:	81 2f       	mov	r24, r17
 8a6:	6a e0       	ldi	r22, 0x0A	; 10
 8a8:	0e 94 a4 05 	call	0xb48	; 0xb48 <__udivmodqi4>
 8ac:	89 2f       	mov	r24, r25
 8ae:	80 5d       	subi	r24, 0xD0	; 208
 8b0:	0e 94 65 02 	call	0x4ca	; 0x4ca <LCD_VoidData>
	LCD_VoidGotoxy(8,2);
 8b4:	88 e0       	ldi	r24, 0x08	; 8
 8b6:	62 e0       	ldi	r22, 0x02	; 2
 8b8:	0e 94 3c 03 	call	0x678	; 0x678 <LCD_VoidGotoxy>
	LCD_VoidData(Copy_u8Speed+48);
 8bc:	80 2f       	mov	r24, r16
 8be:	80 5d       	subi	r24, 0xD0	; 208
 8c0:	0e 94 65 02 	call	0x4ca	; 0x4ca <LCD_VoidData>

}
 8c4:	1f 91       	pop	r17
 8c6:	0f 91       	pop	r16
 8c8:	08 95       	ret

000008ca <main>:

void Local_voidDisplay(u8 Copy_u8Temp,u8 Copy_u8Speed);


int main (void){
	DIO_voidInit();
 8ca:	0e 94 57 00 	call	0xae	; 0xae <DIO_voidInit>
	TACTILE_voidInit();
 8ce:	0e 94 bb 03 	call	0x776	; 0x776 <TACTILE_voidInit>
	LCD_VoidInit();
 8d2:	0e 94 53 03 	call	0x6a6	; 0x6a6 <LCD_VoidInit>
	EEPROM_voidInit();
 8d6:	0e 94 49 00 	call	0x92	; 0x92 <EEPROM_voidInit>
	EEPROM_voidWriteByte(20,TEMP_ADDRESS);
 8da:	84 e1       	ldi	r24, 0x14	; 20
 8dc:	6f e5       	ldi	r22, 0x5F	; 95
 8de:	70 e0       	ldi	r23, 0x00	; 0
 8e0:	0e 94 4a 00 	call	0x94	; 0x94 <EEPROM_voidWriteByte>
	EEPROM_voidWriteByte(2,SPEED_ADDRESS);
 8e4:	82 e0       	ldi	r24, 0x02	; 2
 8e6:	6f e4       	ldi	r22, 0x4F	; 79
 8e8:	70 e0       	ldi	r23, 0x00	; 0
 8ea:	0e 94 4a 00 	call	0x94	; 0x94 <EEPROM_voidWriteByte>
	LCD_VoidString("sfs");
 8ee:	80 e6       	ldi	r24, 0x60	; 96
 8f0:	90 e0       	ldi	r25, 0x00	; 0
 8f2:	0e 94 c7 02 	call	0x58e	; 0x58e <LCD_VoidString>
 8f6:	ff cf       	rjmp	.-2      	; 0x8f6 <main+0x2c>

000008f8 <app>:

	return 0 ;
}

void app(void)
{
 8f8:	cf 92       	push	r12
 8fa:	df 92       	push	r13
 8fc:	ef 92       	push	r14
 8fe:	ff 92       	push	r15
 900:	0f 93       	push	r16
 902:	1f 93       	push	r17
 904:	df 93       	push	r29
 906:	cf 93       	push	r28
 908:	cd b7       	in	r28, 0x3d	; 61
 90a:	de b7       	in	r29, 0x3e	; 62
 90c:	61 97       	sbiw	r28, 0x11	; 17
 90e:	0f b6       	in	r0, 0x3f	; 63
 910:	f8 94       	cli
 912:	de bf       	out	0x3e, r29	; 62
 914:	0f be       	out	0x3f, r0	; 63
 916:	cd bf       	out	0x3d, r28	; 61
	u8 Local_u8Words[2][7]={"Temp=","Speed="};
 918:	8e 01       	movw	r16, r28
 91a:	0c 5f       	subi	r16, 0xFC	; 252
 91c:	1f 4f       	sbci	r17, 0xFF	; 255
 91e:	8e e0       	ldi	r24, 0x0E	; 14
 920:	f8 01       	movw	r30, r16
 922:	11 92       	st	Z+, r1
 924:	8a 95       	dec	r24
 926:	e9 f7       	brne	.-6      	; 0x922 <app+0x2a>
 928:	d8 01       	movw	r26, r16
 92a:	e4 e6       	ldi	r30, 0x64	; 100
 92c:	f0 e0       	ldi	r31, 0x00	; 0
 92e:	86 e0       	ldi	r24, 0x06	; 6
 930:	01 90       	ld	r0, Z+
 932:	0d 92       	st	X+, r0
 934:	81 50       	subi	r24, 0x01	; 1
 936:	e1 f7       	brne	.-8      	; 0x930 <app+0x38>
 938:	1a 86       	std	Y+10, r1	; 0x0a
 93a:	8b e0       	ldi	r24, 0x0B	; 11
 93c:	c8 2e       	mov	r12, r24
 93e:	d1 2c       	mov	r13, r1
 940:	cc 0e       	add	r12, r28
 942:	dd 1e       	adc	r13, r29
 944:	d6 01       	movw	r26, r12
 946:	eb e6       	ldi	r30, 0x6B	; 107
 948:	f0 e0       	ldi	r31, 0x00	; 0
 94a:	87 e0       	ldi	r24, 0x07	; 7
 94c:	01 90       	ld	r0, Z+
 94e:	0d 92       	st	X+, r0
 950:	81 50       	subi	r24, 0x01	; 1
 952:	e1 f7       	brne	.-8      	; 0x94c <app+0x54>
	u8 Select_SW_State,Up_SW_State,Down_SW_State,Local_u8Check;
	static u8 Local_u8State=DISPLAY;
	static u8 Local_u8ModeFlag=TEMP;
	static u8 Local_u8UpDownFlag=RELEASE;
	u8 Local_u8Temp=EEPROM_u8ReadByte(TEMP_ADDRESS);
 954:	8f e5       	ldi	r24, 0x5F	; 95
 956:	90 e0       	ldi	r25, 0x00	; 0
 958:	0e 94 52 00 	call	0xa4	; 0xa4 <EEPROM_u8ReadByte>
 95c:	f8 2e       	mov	r15, r24
	u8 Local_u8Speed=EEPROM_u8ReadByte(SPEED_ADDRESS);
 95e:	8f e4       	ldi	r24, 0x4F	; 79
 960:	90 e0       	ldi	r25, 0x00	; 0
 962:	0e 94 52 00 	call	0xa4	; 0xa4 <EEPROM_u8ReadByte>
 966:	e8 2e       	mov	r14, r24
	LCD_VoidGotoxy(2,1);
 968:	82 e0       	ldi	r24, 0x02	; 2
 96a:	61 e0       	ldi	r22, 0x01	; 1
 96c:	0e 94 3c 03 	call	0x678	; 0x678 <LCD_VoidGotoxy>
	LCD_VoidString(Local_u8Words[0]);
 970:	c8 01       	movw	r24, r16
 972:	0e 94 c7 02 	call	0x58e	; 0x58e <LCD_VoidString>
	LCD_VoidGotoxy(2,2);
 976:	82 e0       	ldi	r24, 0x02	; 2
 978:	62 e0       	ldi	r22, 0x02	; 2
 97a:	0e 94 3c 03 	call	0x678	; 0x678 <LCD_VoidGotoxy>
	LCD_VoidString(Local_u8Words[1]);
 97e:	c6 01       	movw	r24, r12
 980:	0e 94 c7 02 	call	0x58e	; 0x58e <LCD_VoidString>
	TACTILE_u8GetState(TACTILE_u8Switch1,&Select_SW_State);
 984:	80 e0       	ldi	r24, 0x00	; 0
 986:	be 01       	movw	r22, r28
 988:	6f 5f       	subi	r22, 0xFF	; 255
 98a:	7f 4f       	sbci	r23, 0xFF	; 255
 98c:	0e 94 bc 03 	call	0x778	; 0x778 <TACTILE_u8GetState>
	TACTILE_u8GetState(TACTILE_u8Switch2,&Up_SW_State);
 990:	81 e0       	ldi	r24, 0x01	; 1
 992:	be 01       	movw	r22, r28
 994:	6e 5f       	subi	r22, 0xFE	; 254
 996:	7f 4f       	sbci	r23, 0xFF	; 255
 998:	0e 94 bc 03 	call	0x778	; 0x778 <TACTILE_u8GetState>
	TACTILE_u8GetState(TACTILE_u8Switch3,&Down_SW_State);
 99c:	82 e0       	ldi	r24, 0x02	; 2
 99e:	be 01       	movw	r22, r28
 9a0:	6d 5f       	subi	r22, 0xFD	; 253
 9a2:	7f 4f       	sbci	r23, 0xFF	; 255
 9a4:	0e 94 bc 03 	call	0x778	; 0x778 <TACTILE_u8GetState>
	Local_u8Check=(Select_SW_State<<SELECT_BIT)|(Up_SW_State<<UP_BIT)|(Down_SW_State<<DOWN_BIT);
 9a8:	89 81       	ldd	r24, Y+1	; 0x01
 9aa:	88 0f       	add	r24, r24
 9ac:	88 0f       	add	r24, r24
 9ae:	0a 81       	ldd	r16, Y+2	; 0x02
 9b0:	00 0f       	add	r16, r16
 9b2:	08 2b       	or	r16, r24
 9b4:	8b 81       	ldd	r24, Y+3	; 0x03
 9b6:	08 2b       	or	r16, r24
	switch(Local_u8State)
 9b8:	80 91 72 00 	lds	r24, 0x0072
 9bc:	81 30       	cpi	r24, 0x01	; 1
 9be:	b9 f0       	breq	.+46     	; 0x9ee <app+0xf6>
 9c0:	81 30       	cpi	r24, 0x01	; 1
 9c2:	08 f4       	brcc	.+2      	; 0x9c6 <app+0xce>
 9c4:	69 c0       	rjmp	.+210    	; 0xa98 <app+0x1a0>
 9c6:	82 30       	cpi	r24, 0x02	; 2
 9c8:	09 f4       	brne	.+2      	; 0x9cc <app+0xd4>
 9ca:	59 c0       	rjmp	.+178    	; 0xa7e <app+0x186>
 9cc:	83 30       	cpi	r24, 0x03	; 3
 9ce:	39 f1       	breq	.+78     	; 0xa1e <app+0x126>
		}
		break;
	default:
		break;
	}
}
 9d0:	61 96       	adiw	r28, 0x11	; 17
 9d2:	0f b6       	in	r0, 0x3f	; 63
 9d4:	f8 94       	cli
 9d6:	de bf       	out	0x3e, r29	; 62
 9d8:	0f be       	out	0x3f, r0	; 63
 9da:	cd bf       	out	0x3d, r28	; 61
 9dc:	cf 91       	pop	r28
 9de:	df 91       	pop	r29
 9e0:	1f 91       	pop	r17
 9e2:	0f 91       	pop	r16
 9e4:	ff 90       	pop	r15
 9e6:	ef 90       	pop	r14
 9e8:	df 90       	pop	r13
 9ea:	cf 90       	pop	r12
 9ec:	08 95       	ret
		default:
			break;
		}
		break;
	case SPEED:
		switch(Local_u8Check)
 9ee:	02 30       	cpi	r16, 0x02	; 2
 9f0:	09 f4       	brne	.+2      	; 0x9f4 <app+0xfc>
 9f2:	9c c0       	rjmp	.+312    	; 0xb2c <app+0x234>
 9f4:	04 30       	cpi	r16, 0x04	; 4
 9f6:	09 f4       	brne	.+2      	; 0x9fa <app+0x102>
 9f8:	69 c0       	rjmp	.+210    	; 0xacc <app+0x1d4>
 9fa:	01 30       	cpi	r16, 0x01	; 1
 9fc:	49 f7       	brne	.-46     	; 0x9d0 <app+0xd8>
			else{

			}
			break;
		case DOWN_SW_PRESSED:
			if(Local_u8Speed>0)
 9fe:	ee 20       	and	r14, r14
 a00:	39 f3       	breq	.-50     	; 0x9d0 <app+0xd8>
			{
				Local_u8Speed--;
 a02:	1e 2d       	mov	r17, r14
 a04:	11 50       	subi	r17, 0x01	; 1
				LCD_ClearLcd();
 a06:	0e 94 86 03 	call	0x70c	; 0x70c <LCD_ClearLcd>
				EEPROM_voidWriteByte(Local_u8Speed,SPEED_ADDRESS);
 a0a:	81 2f       	mov	r24, r17
 a0c:	6f e4       	ldi	r22, 0x4F	; 79
 a0e:	70 e0       	ldi	r23, 0x00	; 0
 a10:	0e 94 4a 00 	call	0x94	; 0x94 <EEPROM_voidWriteByte>
				Local_voidDisplay(0x51,Local_u8Speed);
 a14:	81 e5       	ldi	r24, 0x51	; 81
 a16:	61 2f       	mov	r22, r17
 a18:	0e 94 43 04 	call	0x886	; 0x886 <Local_voidDisplay>
 a1c:	d9 cf       	rjmp	.-78     	; 0x9d0 <app+0xd8>
	}
}

void Local_voidDisplay(u8 Copy_u8Temp,u8 Copy_u8Speed)
{
	LCD_VoidGotoxy(8,1);
 a1e:	88 e0       	ldi	r24, 0x08	; 8
 a20:	61 e0       	ldi	r22, 0x01	; 1
 a22:	0e 94 3c 03 	call	0x678	; 0x678 <LCD_VoidGotoxy>
	LCD_VoidData((u8)(Copy_u8Temp/10)+48);
 a26:	8f 2d       	mov	r24, r15
 a28:	6a e0       	ldi	r22, 0x0A	; 10
 a2a:	0e 94 a4 05 	call	0xb48	; 0xb48 <__udivmodqi4>
 a2e:	80 5d       	subi	r24, 0xD0	; 208
 a30:	0e 94 65 02 	call	0x4ca	; 0x4ca <LCD_VoidData>
	LCD_VoidData((u8)(Copy_u8Temp%10)+48);
 a34:	8f 2d       	mov	r24, r15
 a36:	6a e0       	ldi	r22, 0x0A	; 10
 a38:	0e 94 a4 05 	call	0xb48	; 0xb48 <__udivmodqi4>
 a3c:	89 2f       	mov	r24, r25
 a3e:	80 5d       	subi	r24, 0xD0	; 208
 a40:	0e 94 65 02 	call	0x4ca	; 0x4ca <LCD_VoidData>
	LCD_VoidGotoxy(8,2);
 a44:	88 e0       	ldi	r24, 0x08	; 8
 a46:	62 e0       	ldi	r22, 0x02	; 2
 a48:	0e 94 3c 03 	call	0x678	; 0x678 <LCD_VoidGotoxy>
	LCD_VoidData(Copy_u8Speed+48);
 a4c:	8e 2d       	mov	r24, r14
 a4e:	80 5d       	subi	r24, 0xD0	; 208
 a50:	0e 94 65 02 	call	0x4ca	; 0x4ca <LCD_VoidData>
	Local_u8Check=(Select_SW_State<<SELECT_BIT)|(Up_SW_State<<UP_BIT)|(Down_SW_State<<DOWN_BIT);
	switch(Local_u8State)
	{
	case DISPLAY:
		Local_voidDisplay(Local_u8Temp,Local_u8Speed);
		switch(Local_u8Check)
 a54:	04 30       	cpi	r16, 0x04	; 4
 a56:	09 f0       	breq	.+2      	; 0xa5a <app+0x162>
 a58:	bb cf       	rjmp	.-138    	; 0x9d0 <app+0xd8>
		{
		case SELECT_SW_PRESSED:
			//LCD_VoidClearScreen();
			LCD_VoidGotoxy(1,1);
 a5a:	81 e0       	ldi	r24, 0x01	; 1
 a5c:	61 e0       	ldi	r22, 0x01	; 1
 a5e:	0e 94 3c 03 	call	0x678	; 0x678 <LCD_VoidGotoxy>
			LCD_VoidData(SELECT_AROW);
 a62:	83 e6       	ldi	r24, 0x63	; 99
 a64:	0e 94 65 02 	call	0x4ca	; 0x4ca <LCD_VoidData>
			//LCD_VoidString(Local_u8Words[0]);
			LCD_VoidGotoxy(1,2);
 a68:	81 e0       	ldi	r24, 0x01	; 1
 a6a:	62 e0       	ldi	r22, 0x02	; 2
 a6c:	0e 94 3c 03 	call	0x678	; 0x678 <LCD_VoidGotoxy>
			LCD_VoidData(EMPTY);
 a70:	82 e3       	ldi	r24, 0x32	; 50
 a72:	0e 94 65 02 	call	0x4ca	; 0x4ca <LCD_VoidData>
			//LCD_VoidString(Local_u8Words[1]);
			Local_u8State=MODES;
 a76:	82 e0       	ldi	r24, 0x02	; 2
 a78:	80 93 72 00 	sts	0x0072, r24
 a7c:	a9 cf       	rjmp	.-174    	; 0x9d0 <app+0xd8>
		default:
			break;
		}
		break;
	case MODES:
		switch(Local_u8Check)
 a7e:	02 30       	cpi	r16, 0x02	; 2
 a80:	91 f1       	breq	.+100    	; 0xae6 <app+0x1ee>
 a82:	04 30       	cpi	r16, 0x04	; 4
 a84:	49 f1       	breq	.+82     	; 0xad8 <app+0x1e0>
 a86:	01 30       	cpi	r16, 0x01	; 1
 a88:	09 f0       	breq	.+2      	; 0xa8c <app+0x194>
 a8a:	a2 cf       	rjmp	.-188    	; 0x9d0 <app+0xd8>
			LCD_VoidData(SELECT_AROW);
			LCD_VoidGotoxy(1,(Local_u8ModeFlag+1)%3);
			LCD_VoidData(EMPTY);
			break;
		case DOWN_SW_PRESSED:
			LCD_VoidClearScreen();
 a8c:	0e 94 38 03 	call	0x670	; 0x670 <LCD_VoidClearScreen>
			Local_u8State=DISPLAY;
 a90:	83 e0       	ldi	r24, 0x03	; 3
 a92:	80 93 72 00 	sts	0x0072, r24
 a96:	9c cf       	rjmp	.-200    	; 0x9d0 <app+0xd8>
		default:
			break;
		}
		break;
	case TEMP:
		switch(Local_u8Check)
 a98:	02 30       	cpi	r16, 0x02	; 2
 a9a:	09 f4       	brne	.+2      	; 0xa9e <app+0x1a6>
 a9c:	4e c0       	rjmp	.+156    	; 0xb3a <app+0x242>
 a9e:	04 30       	cpi	r16, 0x04	; 4
 aa0:	a9 f0       	breq	.+42     	; 0xacc <app+0x1d4>
 aa2:	01 30       	cpi	r16, 0x01	; 1
 aa4:	09 f0       	breq	.+2      	; 0xaa8 <app+0x1b0>
 aa6:	94 cf       	rjmp	.-216    	; 0x9d0 <app+0xd8>
			else{

			}
			break;
		case DOWN_SW_PRESSED:
			if(Local_u8Temp>=16)
 aa8:	8f e0       	ldi	r24, 0x0F	; 15
 aaa:	8f 15       	cp	r24, r15
 aac:	08 f0       	brcs	.+2      	; 0xab0 <app+0x1b8>
 aae:	90 cf       	rjmp	.-224    	; 0x9d0 <app+0xd8>
			{
				Local_u8Temp--;
 ab0:	1f 2d       	mov	r17, r15
 ab2:	11 50       	subi	r17, 0x01	; 1
				EEPROM_voidWriteByte(Local_u8Temp,TEMP_ADDRESS);
 ab4:	81 2f       	mov	r24, r17
 ab6:	6f e5       	ldi	r22, 0x5F	; 95
 ab8:	70 e0       	ldi	r23, 0x00	; 0
 aba:	0e 94 4a 00 	call	0x94	; 0x94 <EEPROM_voidWriteByte>
				LCD_ClearLcd();
 abe:	0e 94 86 03 	call	0x70c	; 0x70c <LCD_ClearLcd>
				Local_voidDisplay(Local_u8Temp,0x51);
 ac2:	81 2f       	mov	r24, r17
 ac4:	61 e5       	ldi	r22, 0x51	; 81
 ac6:	0e 94 43 04 	call	0x886	; 0x886 <Local_voidDisplay>
 aca:	82 cf       	rjmp	.-252    	; 0x9d0 <app+0xd8>
		break;
	case SPEED:
		switch(Local_u8Check)
		{
		case SELECT_SW_PRESSED:
			LCD_VoidClearScreen();
 acc:	0e 94 38 03 	call	0x670	; 0x670 <LCD_VoidClearScreen>
			Local_u8State=MODES;
 ad0:	82 e0       	ldi	r24, 0x02	; 2
 ad2:	80 93 72 00 	sts	0x0072, r24
 ad6:	7c cf       	rjmp	.-264    	; 0x9d0 <app+0xd8>
		break;
	case MODES:
		switch(Local_u8Check)
		{
		case SELECT_SW_PRESSED:
			LCD_VoidClearScreen();
 ad8:	0e 94 38 03 	call	0x670	; 0x670 <LCD_VoidClearScreen>
			Local_u8State=Local_u8ModeFlag;
 adc:	80 91 c2 00 	lds	r24, 0x00C2
 ae0:	80 93 72 00 	sts	0x0072, r24
 ae4:	75 cf       	rjmp	.-278    	; 0x9d0 <app+0xd8>
			break;
		case UP_SW_PRESSED:
			Local_u8ModeFlag=Local_u8ModeFlag^1;
 ae6:	80 91 c2 00 	lds	r24, 0x00C2
 aea:	21 e0       	ldi	r18, 0x01	; 1
 aec:	82 27       	eor	r24, r18
 aee:	80 93 c2 00 	sts	0x00C2, r24
			LCD_VoidGotoxy(1,(Local_u8ModeFlag+1)%3);
 af2:	90 e0       	ldi	r25, 0x00	; 0
 af4:	01 96       	adiw	r24, 0x01	; 1
 af6:	63 e0       	ldi	r22, 0x03	; 3
 af8:	70 e0       	ldi	r23, 0x00	; 0
 afa:	0e 94 c4 05 	call	0xb88	; 0xb88 <__divmodhi4>
 afe:	68 2f       	mov	r22, r24
 b00:	81 e0       	ldi	r24, 0x01	; 1
 b02:	0e 94 3c 03 	call	0x678	; 0x678 <LCD_VoidGotoxy>
			LCD_VoidData(SELECT_AROW);
 b06:	83 e6       	ldi	r24, 0x63	; 99
 b08:	0e 94 65 02 	call	0x4ca	; 0x4ca <LCD_VoidData>
			LCD_VoidGotoxy(1,(Local_u8ModeFlag+1)%3);
 b0c:	80 91 c2 00 	lds	r24, 0x00C2
 b10:	90 e0       	ldi	r25, 0x00	; 0
 b12:	01 96       	adiw	r24, 0x01	; 1
 b14:	63 e0       	ldi	r22, 0x03	; 3
 b16:	70 e0       	ldi	r23, 0x00	; 0
 b18:	0e 94 c4 05 	call	0xb88	; 0xb88 <__divmodhi4>
 b1c:	68 2f       	mov	r22, r24
 b1e:	81 e0       	ldi	r24, 0x01	; 1
 b20:	0e 94 3c 03 	call	0x678	; 0x678 <LCD_VoidGotoxy>
			LCD_VoidData(EMPTY);
 b24:	82 e3       	ldi	r24, 0x32	; 50
 b26:	0e 94 65 02 	call	0x4ca	; 0x4ca <LCD_VoidData>
 b2a:	52 cf       	rjmp	.-348    	; 0x9d0 <app+0xd8>
		case SELECT_SW_PRESSED:
			LCD_VoidClearScreen();
			Local_u8State=MODES;
			break;
		case UP_SW_PRESSED:
			if(Local_u8Speed<=6)
 b2c:	e6 e0       	ldi	r30, 0x06	; 6
 b2e:	ee 15       	cp	r30, r14
 b30:	08 f4       	brcc	.+2      	; 0xb34 <app+0x23c>
 b32:	4e cf       	rjmp	.-356    	; 0x9d0 <app+0xd8>
			{
				Local_u8Speed++;
 b34:	1e 2d       	mov	r17, r14
 b36:	1f 5f       	subi	r17, 0xFF	; 255
 b38:	66 cf       	rjmp	.-308    	; 0xa06 <app+0x10e>
		case SELECT_SW_PRESSED:
			LCD_VoidClearScreen();
			Local_u8State=MODES;
			break;
		case UP_SW_PRESSED:
			if(Local_u8Temp<=30)
 b3a:	fe e1       	ldi	r31, 0x1E	; 30
 b3c:	ff 15       	cp	r31, r15
 b3e:	08 f4       	brcc	.+2      	; 0xb42 <app+0x24a>
 b40:	47 cf       	rjmp	.-370    	; 0x9d0 <app+0xd8>
			{
				Local_u8Temp++;
 b42:	1f 2d       	mov	r17, r15
 b44:	1f 5f       	subi	r17, 0xFF	; 255
 b46:	b6 cf       	rjmp	.-148    	; 0xab4 <app+0x1bc>

00000b48 <__udivmodqi4>:
 b48:	99 1b       	sub	r25, r25
 b4a:	79 e0       	ldi	r23, 0x09	; 9
 b4c:	04 c0       	rjmp	.+8      	; 0xb56 <__udivmodqi4_ep>

00000b4e <__udivmodqi4_loop>:
 b4e:	99 1f       	adc	r25, r25
 b50:	96 17       	cp	r25, r22
 b52:	08 f0       	brcs	.+2      	; 0xb56 <__udivmodqi4_ep>
 b54:	96 1b       	sub	r25, r22

00000b56 <__udivmodqi4_ep>:
 b56:	88 1f       	adc	r24, r24
 b58:	7a 95       	dec	r23
 b5a:	c9 f7       	brne	.-14     	; 0xb4e <__udivmodqi4_loop>
 b5c:	80 95       	com	r24
 b5e:	08 95       	ret

00000b60 <__udivmodhi4>:
 b60:	aa 1b       	sub	r26, r26
 b62:	bb 1b       	sub	r27, r27
 b64:	51 e1       	ldi	r21, 0x11	; 17
 b66:	07 c0       	rjmp	.+14     	; 0xb76 <__udivmodhi4_ep>

00000b68 <__udivmodhi4_loop>:
 b68:	aa 1f       	adc	r26, r26
 b6a:	bb 1f       	adc	r27, r27
 b6c:	a6 17       	cp	r26, r22
 b6e:	b7 07       	cpc	r27, r23
 b70:	10 f0       	brcs	.+4      	; 0xb76 <__udivmodhi4_ep>
 b72:	a6 1b       	sub	r26, r22
 b74:	b7 0b       	sbc	r27, r23

00000b76 <__udivmodhi4_ep>:
 b76:	88 1f       	adc	r24, r24
 b78:	99 1f       	adc	r25, r25
 b7a:	5a 95       	dec	r21
 b7c:	a9 f7       	brne	.-22     	; 0xb68 <__udivmodhi4_loop>
 b7e:	80 95       	com	r24
 b80:	90 95       	com	r25
 b82:	bc 01       	movw	r22, r24
 b84:	cd 01       	movw	r24, r26
 b86:	08 95       	ret

00000b88 <__divmodhi4>:
 b88:	97 fb       	bst	r25, 7
 b8a:	09 2e       	mov	r0, r25
 b8c:	07 26       	eor	r0, r23
 b8e:	0a d0       	rcall	.+20     	; 0xba4 <__divmodhi4_neg1>
 b90:	77 fd       	sbrc	r23, 7
 b92:	04 d0       	rcall	.+8      	; 0xb9c <__divmodhi4_neg2>
 b94:	e5 df       	rcall	.-54     	; 0xb60 <__udivmodhi4>
 b96:	06 d0       	rcall	.+12     	; 0xba4 <__divmodhi4_neg1>
 b98:	00 20       	and	r0, r0
 b9a:	1a f4       	brpl	.+6      	; 0xba2 <__divmodhi4_exit>

00000b9c <__divmodhi4_neg2>:
 b9c:	70 95       	com	r23
 b9e:	61 95       	neg	r22
 ba0:	7f 4f       	sbci	r23, 0xFF	; 255

00000ba2 <__divmodhi4_exit>:
 ba2:	08 95       	ret

00000ba4 <__divmodhi4_neg1>:
 ba4:	f6 f7       	brtc	.-4      	; 0xba2 <__divmodhi4_exit>
 ba6:	90 95       	com	r25
 ba8:	81 95       	neg	r24
 baa:	9f 4f       	sbci	r25, 0xFF	; 255
 bac:	08 95       	ret

00000bae <_exit>:
 bae:	f8 94       	cli

00000bb0 <__stop_program>:
 bb0:	ff cf       	rjmp	.-2      	; 0xbb0 <__stop_program>
