
Air_Conditioner_Screen.elf:     file format elf32-avr

Sections:
Idx Name          Size      VMA       LMA       File off  Algn
  0 .text         0000140c  00000000  00000000  00000094  2**1
                  CONTENTS, ALLOC, LOAD, READONLY, CODE
  1 .data         00000048  00800060  0000140c  000014a0  2**0
                  CONTENTS, ALLOC, LOAD, DATA
  2 .bss          00000017  008000a8  008000a8  000014e8  2**0
                  ALLOC
  3 .stab         000025b0  00000000  00000000  000014e8  2**2
                  CONTENTS, READONLY, DEBUGGING
  4 .stabstr      00000c3e  00000000  00000000  00003a98  2**0
                  CONTENTS, READONLY, DEBUGGING

Disassembly of section .text:

00000000 <__vectors>:
       0:	0c 94 2a 00 	jmp	0x54	; 0x54 <__ctors_end>
       4:	0c 94 47 00 	jmp	0x8e	; 0x8e <__bad_interrupt>
       8:	0c 94 47 00 	jmp	0x8e	; 0x8e <__bad_interrupt>
       c:	0c 94 47 00 	jmp	0x8e	; 0x8e <__bad_interrupt>
      10:	0c 94 47 00 	jmp	0x8e	; 0x8e <__bad_interrupt>
      14:	0c 94 47 00 	jmp	0x8e	; 0x8e <__bad_interrupt>
      18:	0c 94 47 00 	jmp	0x8e	; 0x8e <__bad_interrupt>
      1c:	0c 94 47 00 	jmp	0x8e	; 0x8e <__bad_interrupt>
      20:	0c 94 47 00 	jmp	0x8e	; 0x8e <__bad_interrupt>
      24:	0c 94 47 00 	jmp	0x8e	; 0x8e <__bad_interrupt>
      28:	0c 94 47 00 	jmp	0x8e	; 0x8e <__bad_interrupt>
      2c:	0c 94 47 00 	jmp	0x8e	; 0x8e <__bad_interrupt>
      30:	0c 94 47 00 	jmp	0x8e	; 0x8e <__bad_interrupt>
      34:	0c 94 47 00 	jmp	0x8e	; 0x8e <__bad_interrupt>
      38:	0c 94 47 00 	jmp	0x8e	; 0x8e <__bad_interrupt>
      3c:	0c 94 47 00 	jmp	0x8e	; 0x8e <__bad_interrupt>
      40:	0c 94 47 00 	jmp	0x8e	; 0x8e <__bad_interrupt>
      44:	0c 94 47 00 	jmp	0x8e	; 0x8e <__bad_interrupt>
      48:	0c 94 47 00 	jmp	0x8e	; 0x8e <__bad_interrupt>
      4c:	0c 94 47 00 	jmp	0x8e	; 0x8e <__bad_interrupt>
      50:	0c 94 47 00 	jmp	0x8e	; 0x8e <__bad_interrupt>

00000054 <__ctors_end>:
      54:	11 24       	eor	r1, r1
      56:	1f be       	out	0x3f, r1	; 63
      58:	cf e5       	ldi	r28, 0x5F	; 95
      5a:	d8 e0       	ldi	r29, 0x08	; 8
      5c:	de bf       	out	0x3e, r29	; 62
      5e:	cd bf       	out	0x3d, r28	; 61

00000060 <__do_copy_data>:
      60:	10 e0       	ldi	r17, 0x00	; 0
      62:	a0 e6       	ldi	r26, 0x60	; 96
      64:	b0 e0       	ldi	r27, 0x00	; 0
      66:	ec e0       	ldi	r30, 0x0C	; 12
      68:	f4 e1       	ldi	r31, 0x14	; 20
      6a:	02 c0       	rjmp	.+4      	; 0x70 <.do_copy_data_start>

0000006c <.do_copy_data_loop>:
      6c:	05 90       	lpm	r0, Z+
      6e:	0d 92       	st	X+, r0

00000070 <.do_copy_data_start>:
      70:	a8 3a       	cpi	r26, 0xA8	; 168
      72:	b1 07       	cpc	r27, r17
      74:	d9 f7       	brne	.-10     	; 0x6c <.do_copy_data_loop>

00000076 <__do_clear_bss>:
      76:	10 e0       	ldi	r17, 0x00	; 0
      78:	a8 ea       	ldi	r26, 0xA8	; 168
      7a:	b0 e0       	ldi	r27, 0x00	; 0
      7c:	01 c0       	rjmp	.+2      	; 0x80 <.do_clear_bss_start>

0000007e <.do_clear_bss_loop>:
      7e:	1d 92       	st	X+, r1

00000080 <.do_clear_bss_start>:
      80:	af 3b       	cpi	r26, 0xBF	; 191
      82:	b1 07       	cpc	r27, r17
      84:	e1 f7       	brne	.-8      	; 0x7e <.do_clear_bss_loop>
      86:	0e 94 b1 09 	call	0x1362	; 0x1362 <main>
      8a:	0c 94 04 0a 	jmp	0x1408	; 0x1408 <_exit>

0000008e <__bad_interrupt>:
      8e:	0c 94 00 00 	jmp	0	; 0x0 <__vectors>

00000092 <EEPROM_voidInit>:
/*Comment!: initialize EEPROM*/
extern void EEPROM_voidInit(void)
{

	return;
}
      92:	08 95       	ret

00000094 <EEPROM_voidWriteByte>:


/*Comment!: Write byte to EEPROM*/
extern void EEPROM_voidWriteByte(u8 Copy_u8Data, u16 Copy_u16Addresss)
{
	while( GET_BIT(EEPROM_u8EECR,EEPROM_EECR_EEWE) );
      94:	e1 99       	sbic	0x1c, 1	; 28
      96:	fe cf       	rjmp	.-4      	; 0x94 <EEPROM_voidWriteByte>

/*Comment!:Set address*/
	ASSIGN_REG(EEPROM_u16EEAR,Copy_u16Addresss);
      98:	7f bb       	out	0x1f, r23	; 31
      9a:	6e bb       	out	0x1e, r22	; 30

/*Comment!:enable writing operation*/
	ASSIGN_REG(EEPROM_u8EEDR,Copy_u8Data);
      9c:	8d bb       	out	0x1d, r24	; 29

	SET_BIT(EEPROM_u8EECR,EEPROM_EECR_EEMWE);
      9e:	e2 9a       	sbi	0x1c, 2	; 28
	SET_BIT(EEPROM_u8EECR,EEPROM_EECR_EEWE);
      a0:	e1 9a       	sbi	0x1c, 1	; 28
	return;
}
      a2:	08 95       	ret

000000a4 <EEPROM_u8ReadByte>:
extern u8 EEPROM_u8ReadByte(u16 Copy_u16Address)
{
	u8 local_u8EEPROMDATA;

/*Comment!:Set address*/
	ASSIGN_REG(EEPROM_u16EEAR,Copy_u16Address);
      a4:	9f bb       	out	0x1f, r25	; 31
      a6:	8e bb       	out	0x1e, r24	; 30

/*Comment!:Enable read flag*/
	SET_BIT(EEPROM_u8EECR,EEPROM_EECR_EERE);
      a8:	e0 9a       	sbi	0x1c, 0	; 28
	local_u8EEPROMDATA=EEPROM_u8EEDR;
      aa:	8d b3       	in	r24, 0x1d	; 29

	return local_u8EEPROMDATA;
}
      ac:	08 95       	ret

000000ae <DIO_voidInit>:
PINC, PIND };
static volatile u8* const DIO_u8WritePortArr[DIO_u8PORTNUMBERS] = { PORTA,
PORTB, PORTC, PORTD };

void DIO_voidInit(void) {
	*DDRA |= DIO_u8PORTA_DIR;
      ae:	8a b3       	in	r24, 0x1a	; 26
      b0:	8a bb       	out	0x1a, r24	; 26
	*DDRB |= DIO_u8PORTB_DIR;
      b2:	87 b3       	in	r24, 0x17	; 23
      b4:	87 bb       	out	0x17, r24	; 23
	*DDRC |= DIO_u8PORTC_DIR;
      b6:	84 b3       	in	r24, 0x14	; 20
      b8:	8f ef       	ldi	r24, 0xFF	; 255
      ba:	84 bb       	out	0x14, r24	; 20
	*DDRD |= DIO_u8PORTD_DIR;
      bc:	91 b3       	in	r25, 0x11	; 17
      be:	81 bb       	out	0x11, r24	; 17

	*PORTA = (*PORTA & ~DIO_u8PORTA_DIR) | (DIO_u8PORTA_DIR & DIO_u8PORTA_VAL);
      c0:	8b b3       	in	r24, 0x1b	; 27
      c2:	8b bb       	out	0x1b, r24	; 27
	*PORTB = (*PORTB & ~DIO_u8PORTB_DIR) | (DIO_u8PORTB_DIR & DIO_u8PORTB_VAL);
      c4:	88 b3       	in	r24, 0x18	; 24
      c6:	88 bb       	out	0x18, r24	; 24
	*PORTC = (*PORTC & ~DIO_u8PORTC_DIR) | (DIO_u8PORTC_DIR & DIO_u8PORTC_VAL);
      c8:	85 b3       	in	r24, 0x15	; 21
      ca:	15 ba       	out	0x15, r1	; 21
	*PORTD = (*PORTD & ~DIO_u8PORTD_DIR) | (DIO_u8PORTD_DIR & DIO_u8PORTD_VAL);
      cc:	82 b3       	in	r24, 0x12	; 18
      ce:	12 ba       	out	0x12, r1	; 18

	return;
}
      d0:	08 95       	ret

000000d2 <DIO_u8ReadPortDir>:

u8 DIO_u8ReadPortDir(u8 Copy_u8PortIdx, u8* Copy_u8PtrToDir) {
      d2:	db 01       	movw	r26, r22
	u8 Local_u8ReturnFlag = OK;
	if (Copy_u8PortIdx > DIO_u8PORTNUMBERS - 1 || Copy_u8PortIdx < 0) {
      d4:	84 30       	cpi	r24, 0x04	; 4
      d6:	68 f4       	brcc	.+26     	; 0xf2 <DIO_u8ReadPortDir+0x20>
		Local_u8ReturnFlag = ERROR;
	} else {
		*Copy_u8PtrToDir = *DIO_u8RWDirArr[Copy_u8PortIdx];
      d8:	e8 2f       	mov	r30, r24
      da:	f0 e0       	ldi	r31, 0x00	; 0
      dc:	ee 0f       	add	r30, r30
      de:	ff 1f       	adc	r31, r31
      e0:	e1 58       	subi	r30, 0x81	; 129
      e2:	ff 4f       	sbci	r31, 0xFF	; 255
      e4:	01 90       	ld	r0, Z+
      e6:	f0 81       	ld	r31, Z
      e8:	e0 2d       	mov	r30, r0
      ea:	80 81       	ld	r24, Z
      ec:	8c 93       	st	X, r24
      ee:	81 e0       	ldi	r24, 0x01	; 1
		Local_u8ReturnFlag = OK;
	}
	return Local_u8ReturnFlag;

}
      f0:	08 95       	ret
	return;
}

u8 DIO_u8ReadPortDir(u8 Copy_u8PortIdx, u8* Copy_u8PtrToDir) {
	u8 Local_u8ReturnFlag = OK;
	if (Copy_u8PortIdx > DIO_u8PORTNUMBERS - 1 || Copy_u8PortIdx < 0) {
      f2:	80 e0       	ldi	r24, 0x00	; 0
      f4:	08 95       	ret

000000f6 <DIO_u8WritePortDir>:
}

u8 DIO_u8WritePortDir(u8 Copy_u8PortIdx, u8 Copy_u8PortDir) {

	u8 Local_u8ReturnFlag = OK;
	if (Copy_u8PortIdx > DIO_u8PORTNUMBERS - 1 || Copy_u8PortIdx < 0) {
      f6:	84 30       	cpi	r24, 0x04	; 4
      f8:	60 f4       	brcc	.+24     	; 0x112 <DIO_u8WritePortDir+0x1c>
		Local_u8ReturnFlag = ERROR;
	} else {
		*DIO_u8RWDirArr[Copy_u8PortIdx] = Copy_u8PortDir;
      fa:	e8 2f       	mov	r30, r24
      fc:	f0 e0       	ldi	r31, 0x00	; 0
      fe:	ee 0f       	add	r30, r30
     100:	ff 1f       	adc	r31, r31
     102:	e1 58       	subi	r30, 0x81	; 129
     104:	ff 4f       	sbci	r31, 0xFF	; 255
     106:	01 90       	ld	r0, Z+
     108:	f0 81       	ld	r31, Z
     10a:	e0 2d       	mov	r30, r0
     10c:	60 83       	st	Z, r22
     10e:	81 e0       	ldi	r24, 0x01	; 1
		Local_u8ReturnFlag = OK;
	}
	return Local_u8ReturnFlag;

}
     110:	08 95       	ret
}

u8 DIO_u8WritePortDir(u8 Copy_u8PortIdx, u8 Copy_u8PortDir) {

	u8 Local_u8ReturnFlag = OK;
	if (Copy_u8PortIdx > DIO_u8PORTNUMBERS - 1 || Copy_u8PortIdx < 0) {
     112:	80 e0       	ldi	r24, 0x00	; 0
     114:	08 95       	ret

00000116 <DIO_u8ReadPortVal>:
	}
	return Local_u8ReturnFlag;

}

u8 DIO_u8ReadPortVal(u8 Copy_u8PortIdx, u8* Copy_u8PtrToVal) {
     116:	db 01       	movw	r26, r22

	u8 Local_u8ReturnFlag = OK;
	if (Copy_u8PortIdx > DIO_u8PORTNUMBERS - 1 || Copy_u8PortIdx < 0) {
     118:	84 30       	cpi	r24, 0x04	; 4
     11a:	68 f4       	brcc	.+26     	; 0x136 <DIO_u8ReadPortVal+0x20>
		Local_u8ReturnFlag = ERROR;
	} else {
		*Copy_u8PtrToVal = *DIO_u8ReadPortArr[Copy_u8PortIdx];
     11c:	e8 2f       	mov	r30, r24
     11e:	f0 e0       	ldi	r31, 0x00	; 0
     120:	ee 0f       	add	r30, r30
     122:	ff 1f       	adc	r31, r31
     124:	e9 58       	subi	r30, 0x89	; 137
     126:	ff 4f       	sbci	r31, 0xFF	; 255
     128:	01 90       	ld	r0, Z+
     12a:	f0 81       	ld	r31, Z
     12c:	e0 2d       	mov	r30, r0
     12e:	80 81       	ld	r24, Z
     130:	8c 93       	st	X, r24
     132:	81 e0       	ldi	r24, 0x01	; 1
		Local_u8ReturnFlag = OK;
	}
	return Local_u8ReturnFlag;

}
     134:	08 95       	ret
}

u8 DIO_u8ReadPortVal(u8 Copy_u8PortIdx, u8* Copy_u8PtrToVal) {

	u8 Local_u8ReturnFlag = OK;
	if (Copy_u8PortIdx > DIO_u8PORTNUMBERS - 1 || Copy_u8PortIdx < 0) {
     136:	80 e0       	ldi	r24, 0x00	; 0
     138:	08 95       	ret

0000013a <DIO_u8WritePortVal>:
}

u8 DIO_u8WritePortVal(u8 Copy_u8PortIdx, u8 Copy_u8PortVal) {

	u8 Local_u8ReturnFlag = OK;
	if (Copy_u8PortIdx > DIO_u8PORTNUMBERS - 1 || Copy_u8PortIdx < 0) {
     13a:	84 30       	cpi	r24, 0x04	; 4
     13c:	60 f4       	brcc	.+24     	; 0x156 <DIO_u8WritePortVal+0x1c>
		Local_u8ReturnFlag = ERROR;
	} else {
		*DIO_u8WritePortArr[Copy_u8PortIdx] = Copy_u8PortVal;
     13e:	e8 2f       	mov	r30, r24
     140:	f0 e0       	ldi	r31, 0x00	; 0
     142:	ee 0f       	add	r30, r30
     144:	ff 1f       	adc	r31, r31
     146:	e1 59       	subi	r30, 0x91	; 145
     148:	ff 4f       	sbci	r31, 0xFF	; 255
     14a:	01 90       	ld	r0, Z+
     14c:	f0 81       	ld	r31, Z
     14e:	e0 2d       	mov	r30, r0
     150:	60 83       	st	Z, r22
     152:	81 e0       	ldi	r24, 0x01	; 1
		Local_u8ReturnFlag = OK;
	}
	return Local_u8ReturnFlag;
}
     154:	08 95       	ret
}

u8 DIO_u8WritePortVal(u8 Copy_u8PortIdx, u8 Copy_u8PortVal) {

	u8 Local_u8ReturnFlag = OK;
	if (Copy_u8PortIdx > DIO_u8PORTNUMBERS - 1 || Copy_u8PortIdx < 0) {
     156:	80 e0       	ldi	r24, 0x00	; 0
     158:	08 95       	ret

0000015a <DIO_u8ReadPinDir>:
		*DIO_u8WritePortArr[Copy_u8PortIdx] = Copy_u8PortVal;
		Local_u8ReturnFlag = OK;
	}
	return Local_u8ReturnFlag;
}
u8 DIO_u8ReadPinDir(u8 Copy_u8ChIdx, u8* Copy_u8PtrToDir) {
     15a:	db 01       	movw	r26, r22
	u8 Local_u8ReturnFlag = OK;
	if (Copy_u8ChIdx > DIO_u8PINNUMBERS - 1 || Copy_u8ChIdx < 0) {
     15c:	80 32       	cpi	r24, 0x20	; 32
     15e:	20 f5       	brcc	.+72     	; 0x1a8 <DIO_u8ReadPinDir+0x4e>
		Local_u8ReturnFlag = ERROR;
	} else {

		*Copy_u8PtrToDir = GET_BIT(*DIO_u8RWDirArr[Copy_u8ChIdx/DIO_u8PORTSIZE],
     160:	e8 2f       	mov	r30, r24
     162:	e6 95       	lsr	r30
     164:	e6 95       	lsr	r30
     166:	e6 95       	lsr	r30
     168:	f0 e0       	ldi	r31, 0x00	; 0
     16a:	ee 0f       	add	r30, r30
     16c:	ff 1f       	adc	r31, r31
     16e:	e1 58       	subi	r30, 0x81	; 129
     170:	ff 4f       	sbci	r31, 0xFF	; 255
     172:	01 90       	ld	r0, Z+
     174:	f0 81       	ld	r31, Z
     176:	e0 2d       	mov	r30, r0
     178:	20 81       	ld	r18, Z
     17a:	48 2f       	mov	r20, r24
     17c:	50 e0       	ldi	r21, 0x00	; 0
     17e:	47 70       	andi	r20, 0x07	; 7
     180:	50 70       	andi	r21, 0x00	; 0
     182:	30 e0       	ldi	r19, 0x00	; 0
     184:	81 e0       	ldi	r24, 0x01	; 1
     186:	90 e0       	ldi	r25, 0x00	; 0
     188:	04 2e       	mov	r0, r20
     18a:	02 c0       	rjmp	.+4      	; 0x190 <DIO_u8ReadPinDir+0x36>
     18c:	88 0f       	add	r24, r24
     18e:	99 1f       	adc	r25, r25
     190:	0a 94       	dec	r0
     192:	e2 f7       	brpl	.-8      	; 0x18c <DIO_u8ReadPinDir+0x32>
     194:	28 23       	and	r18, r24
     196:	39 23       	and	r19, r25
     198:	02 c0       	rjmp	.+4      	; 0x19e <DIO_u8ReadPinDir+0x44>
     19a:	35 95       	asr	r19
     19c:	27 95       	ror	r18
     19e:	4a 95       	dec	r20
     1a0:	e2 f7       	brpl	.-8      	; 0x19a <DIO_u8ReadPinDir+0x40>
     1a2:	2c 93       	st	X, r18
     1a4:	81 e0       	ldi	r24, 0x01	; 1
		Local_u8ReturnFlag = OK;
	}

	return Local_u8ReturnFlag;

}
     1a6:	08 95       	ret
	}
	return Local_u8ReturnFlag;
}
u8 DIO_u8ReadPinDir(u8 Copy_u8ChIdx, u8* Copy_u8PtrToDir) {
	u8 Local_u8ReturnFlag = OK;
	if (Copy_u8ChIdx > DIO_u8PINNUMBERS - 1 || Copy_u8ChIdx < 0) {
     1a8:	80 e0       	ldi	r24, 0x00	; 0
     1aa:	08 95       	ret

000001ac <DIO_u8WritePinDir>:
	return Local_u8ReturnFlag;

}
u8 DIO_u8WritePinDir(u8 Copy_u8ChIdx, u8 Copy_u8PinDir) {
	u8 Local_u8ReturnFlag = OK;
	if (Copy_u8ChIdx > DIO_u8PINNUMBERS - 1 || Copy_u8ChIdx < 0) {
     1ac:	80 32       	cpi	r24, 0x20	; 32
     1ae:	30 f5       	brcc	.+76     	; 0x1fc <DIO_u8WritePinDir+0x50>
		Local_u8ReturnFlag = ERROR;
	} else {
		ASSIGN_BIT(*DIO_u8RWDirArr[Copy_u8ChIdx/DIO_u8PORTSIZE],
     1b0:	e8 2f       	mov	r30, r24
     1b2:	e6 95       	lsr	r30
     1b4:	e6 95       	lsr	r30
     1b6:	e6 95       	lsr	r30
     1b8:	f0 e0       	ldi	r31, 0x00	; 0
     1ba:	ee 0f       	add	r30, r30
     1bc:	ff 1f       	adc	r31, r31
     1be:	e1 58       	subi	r30, 0x81	; 129
     1c0:	ff 4f       	sbci	r31, 0xFF	; 255
     1c2:	01 90       	ld	r0, Z+
     1c4:	f0 81       	ld	r31, Z
     1c6:	e0 2d       	mov	r30, r0
     1c8:	20 81       	ld	r18, Z
     1ca:	48 2f       	mov	r20, r24
     1cc:	50 e0       	ldi	r21, 0x00	; 0
     1ce:	47 70       	andi	r20, 0x07	; 7
     1d0:	50 70       	andi	r21, 0x00	; 0
     1d2:	81 e0       	ldi	r24, 0x01	; 1
     1d4:	90 e0       	ldi	r25, 0x00	; 0
     1d6:	04 2e       	mov	r0, r20
     1d8:	02 c0       	rjmp	.+4      	; 0x1de <DIO_u8WritePinDir+0x32>
     1da:	88 0f       	add	r24, r24
     1dc:	99 1f       	adc	r25, r25
     1de:	0a 94       	dec	r0
     1e0:	e2 f7       	brpl	.-8      	; 0x1da <DIO_u8WritePinDir+0x2e>
     1e2:	80 95       	com	r24
     1e4:	82 23       	and	r24, r18
     1e6:	26 2f       	mov	r18, r22
     1e8:	30 e0       	ldi	r19, 0x00	; 0
     1ea:	02 c0       	rjmp	.+4      	; 0x1f0 <DIO_u8WritePinDir+0x44>
     1ec:	22 0f       	add	r18, r18
     1ee:	33 1f       	adc	r19, r19
     1f0:	4a 95       	dec	r20
     1f2:	e2 f7       	brpl	.-8      	; 0x1ec <DIO_u8WritePinDir+0x40>
     1f4:	82 2b       	or	r24, r18
     1f6:	80 83       	st	Z, r24
     1f8:	81 e0       	ldi	r24, 0x01	; 1
				(Copy_u8ChIdx%DIO_u8PORTSIZE), Copy_u8PinDir);
		Local_u8ReturnFlag = OK;
	}

	return Local_u8ReturnFlag;
}
     1fa:	08 95       	ret
	return Local_u8ReturnFlag;

}
u8 DIO_u8WritePinDir(u8 Copy_u8ChIdx, u8 Copy_u8PinDir) {
	u8 Local_u8ReturnFlag = OK;
	if (Copy_u8ChIdx > DIO_u8PINNUMBERS - 1 || Copy_u8ChIdx < 0) {
     1fc:	80 e0       	ldi	r24, 0x00	; 0
     1fe:	08 95       	ret

00000200 <DIO_u8ReadPinVal>:
	}

	return Local_u8ReturnFlag;
}

u8 DIO_u8ReadPinVal(u8 Copy_u8ChIdx, u8* Copy_u8PtrToVal) {
     200:	db 01       	movw	r26, r22
	u8 Local_u8ReturnFlag = OK;
	if (Copy_u8ChIdx > DIO_u8PINNUMBERS - 1 || Copy_u8ChIdx < 0) {
     202:	80 32       	cpi	r24, 0x20	; 32
     204:	20 f5       	brcc	.+72     	; 0x24e <DIO_u8ReadPinVal+0x4e>
		Local_u8ReturnFlag = ERROR;
	} else {

		*Copy_u8PtrToVal = GET_BIT(
     206:	e8 2f       	mov	r30, r24
     208:	e6 95       	lsr	r30
     20a:	e6 95       	lsr	r30
     20c:	e6 95       	lsr	r30
     20e:	f0 e0       	ldi	r31, 0x00	; 0
     210:	ee 0f       	add	r30, r30
     212:	ff 1f       	adc	r31, r31
     214:	e9 58       	subi	r30, 0x89	; 137
     216:	ff 4f       	sbci	r31, 0xFF	; 255
     218:	01 90       	ld	r0, Z+
     21a:	f0 81       	ld	r31, Z
     21c:	e0 2d       	mov	r30, r0
     21e:	20 81       	ld	r18, Z
     220:	48 2f       	mov	r20, r24
     222:	50 e0       	ldi	r21, 0x00	; 0
     224:	47 70       	andi	r20, 0x07	; 7
     226:	50 70       	andi	r21, 0x00	; 0
     228:	30 e0       	ldi	r19, 0x00	; 0
     22a:	81 e0       	ldi	r24, 0x01	; 1
     22c:	90 e0       	ldi	r25, 0x00	; 0
     22e:	04 2e       	mov	r0, r20
     230:	02 c0       	rjmp	.+4      	; 0x236 <DIO_u8ReadPinVal+0x36>
     232:	88 0f       	add	r24, r24
     234:	99 1f       	adc	r25, r25
     236:	0a 94       	dec	r0
     238:	e2 f7       	brpl	.-8      	; 0x232 <DIO_u8ReadPinVal+0x32>
     23a:	28 23       	and	r18, r24
     23c:	39 23       	and	r19, r25
     23e:	02 c0       	rjmp	.+4      	; 0x244 <DIO_u8ReadPinVal+0x44>
     240:	35 95       	asr	r19
     242:	27 95       	ror	r18
     244:	4a 95       	dec	r20
     246:	e2 f7       	brpl	.-8      	; 0x240 <DIO_u8ReadPinVal+0x40>
     248:	2c 93       	st	X, r18
     24a:	81 e0       	ldi	r24, 0x01	; 1
				(Copy_u8ChIdx%DIO_u8PORTSIZE));
		Local_u8ReturnFlag = OK;
	}

	return Local_u8ReturnFlag;
}
     24c:	08 95       	ret
	return Local_u8ReturnFlag;
}

u8 DIO_u8ReadPinVal(u8 Copy_u8ChIdx, u8* Copy_u8PtrToVal) {
	u8 Local_u8ReturnFlag = OK;
	if (Copy_u8ChIdx > DIO_u8PINNUMBERS - 1 || Copy_u8ChIdx < 0) {
     24e:	80 e0       	ldi	r24, 0x00	; 0
     250:	08 95       	ret

00000252 <DIO_u8WritePinVal>:
	return Local_u8ReturnFlag;
}

u8 DIO_u8WritePinVal(u8 Copy_u8ChIdx, u8 Copy_u8PinVal) {
	u8 Local_u8ReturnFlag = OK;
	if (Copy_u8ChIdx > DIO_u8PINNUMBERS - 1 || Copy_u8ChIdx < 0) {
     252:	80 32       	cpi	r24, 0x20	; 32
     254:	30 f5       	brcc	.+76     	; 0x2a2 <DIO_u8WritePinVal+0x50>
		Local_u8ReturnFlag = ERROR;
	} else {
		ASSIGN_BIT(*DIO_u8WritePortArr[Copy_u8ChIdx/DIO_u8PORTSIZE],
     256:	e8 2f       	mov	r30, r24
     258:	e6 95       	lsr	r30
     25a:	e6 95       	lsr	r30
     25c:	e6 95       	lsr	r30
     25e:	f0 e0       	ldi	r31, 0x00	; 0
     260:	ee 0f       	add	r30, r30
     262:	ff 1f       	adc	r31, r31
     264:	e1 59       	subi	r30, 0x91	; 145
     266:	ff 4f       	sbci	r31, 0xFF	; 255
     268:	01 90       	ld	r0, Z+
     26a:	f0 81       	ld	r31, Z
     26c:	e0 2d       	mov	r30, r0
     26e:	20 81       	ld	r18, Z
     270:	48 2f       	mov	r20, r24
     272:	50 e0       	ldi	r21, 0x00	; 0
     274:	47 70       	andi	r20, 0x07	; 7
     276:	50 70       	andi	r21, 0x00	; 0
     278:	81 e0       	ldi	r24, 0x01	; 1
     27a:	90 e0       	ldi	r25, 0x00	; 0
     27c:	04 2e       	mov	r0, r20
     27e:	02 c0       	rjmp	.+4      	; 0x284 <DIO_u8WritePinVal+0x32>
     280:	88 0f       	add	r24, r24
     282:	99 1f       	adc	r25, r25
     284:	0a 94       	dec	r0
     286:	e2 f7       	brpl	.-8      	; 0x280 <DIO_u8WritePinVal+0x2e>
     288:	80 95       	com	r24
     28a:	82 23       	and	r24, r18
     28c:	26 2f       	mov	r18, r22
     28e:	30 e0       	ldi	r19, 0x00	; 0
     290:	02 c0       	rjmp	.+4      	; 0x296 <DIO_u8WritePinVal+0x44>
     292:	22 0f       	add	r18, r18
     294:	33 1f       	adc	r19, r19
     296:	4a 95       	dec	r20
     298:	e2 f7       	brpl	.-8      	; 0x292 <DIO_u8WritePinVal+0x40>
     29a:	82 2b       	or	r24, r18
     29c:	80 83       	st	Z, r24
     29e:	81 e0       	ldi	r24, 0x01	; 1
				(Copy_u8ChIdx%DIO_u8PORTSIZE), Copy_u8PinVal);
		Local_u8ReturnFlag = OK;
	}

	return Local_u8ReturnFlag;
}
     2a0:	08 95       	ret
	return Local_u8ReturnFlag;
}

u8 DIO_u8WritePinVal(u8 Copy_u8ChIdx, u8 Copy_u8PinVal) {
	u8 Local_u8ReturnFlag = OK;
	if (Copy_u8ChIdx > DIO_u8PINNUMBERS - 1 || Copy_u8ChIdx < 0) {
     2a2:	80 e0       	ldi	r24, 0x00	; 0
     2a4:	08 95       	ret

000002a6 <LCD_u16ReturnString>:
	LCD_VoidCmd(0x01);
}
/*********************************************************************************************/

u16* LCD_u16ReturnString(u16 inputValue)
{
     2a6:	9c 01       	movw	r18, r24
    static u16 Local_u16ProcessedString[5]; // Return a string of 3 digits.
    u8 Local_u8Counter=0; // Brute-force counter for first digit.

    if (inputValue < 99)
     2a8:	83 36       	cpi	r24, 0x63	; 99
     2aa:	91 05       	cpc	r25, r1
     2ac:	08 f4       	brcc	.+2      	; 0x2b0 <LCD_u16ReturnString+0xa>
     2ae:	60 c0       	rjmp	.+192    	; 0x370 <LCD_u16ReturnString+0xca>
    {
    	Local_u16ProcessedString[Local_u8Counter++]=inputValue / 10 +'0'; //first number
    	Local_u16ProcessedString[Local_u8Counter++]=inputValue % 10 +'0';//Second number
    }
    else if (inputValue < 999)
     2b0:	83 e0       	ldi	r24, 0x03	; 3
     2b2:	27 3e       	cpi	r18, 0xE7	; 231
     2b4:	38 07       	cpc	r19, r24
     2b6:	68 f1       	brcs	.+90     	; 0x312 <LCD_u16ReturnString+0x6c>
    {
    	Local_u16ProcessedString[Local_u8Counter++]=(inputValue / 100) +'0'; //first number
    	Local_u16ProcessedString[Local_u8Counter++]=((inputValue / 10) % 10) +'0';//Second number
    	Local_u16ProcessedString[Local_u8Counter++]=inputValue % 10 +'0';//Third number
    }
    else if (inputValue < 1024)
     2b8:	84 e0       	ldi	r24, 0x04	; 4
     2ba:	20 30       	cpi	r18, 0x00	; 0
     2bc:	38 07       	cpc	r19, r24
     2be:	08 f0       	brcs	.+2      	; 0x2c2 <LCD_u16ReturnString+0x1c>
     2c0:	6e c0       	rjmp	.+220    	; 0x39e <LCD_u16ReturnString+0xf8>
    {
    	Local_u16ProcessedString[Local_u8Counter++]='1'; //first number
     2c2:	81 e3       	ldi	r24, 0x31	; 49
     2c4:	90 e0       	ldi	r25, 0x00	; 0
     2c6:	90 93 a9 00 	sts	0x00A9, r25
     2ca:	80 93 a8 00 	sts	0x00A8, r24
    	Local_u16ProcessedString[Local_u8Counter++]='0'; //Second number
     2ce:	80 e3       	ldi	r24, 0x30	; 48
     2d0:	90 e0       	ldi	r25, 0x00	; 0
     2d2:	90 93 ab 00 	sts	0x00AB, r25
     2d6:	80 93 aa 00 	sts	0x00AA, r24
    	Local_u16ProcessedString[Local_u8Counter++]=((inputValue / 10) % 10) +'0';//Third number
     2da:	c9 01       	movw	r24, r18
     2dc:	6a e0       	ldi	r22, 0x0A	; 10
     2de:	70 e0       	ldi	r23, 0x00	; 0
     2e0:	0e 94 dd 09 	call	0x13ba	; 0x13ba <__udivmodhi4>
     2e4:	cb 01       	movw	r24, r22
     2e6:	6a e0       	ldi	r22, 0x0A	; 10
     2e8:	70 e0       	ldi	r23, 0x00	; 0
     2ea:	0e 94 dd 09 	call	0x13ba	; 0x13ba <__udivmodhi4>
     2ee:	c0 96       	adiw	r24, 0x30	; 48
     2f0:	90 93 ad 00 	sts	0x00AD, r25
     2f4:	80 93 ac 00 	sts	0x00AC, r24
    	Local_u16ProcessedString[Local_u8Counter++]=inputValue % 10 +'0';//Forth number
     2f8:	c9 01       	movw	r24, r18
     2fa:	6a e0       	ldi	r22, 0x0A	; 10
     2fc:	70 e0       	ldi	r23, 0x00	; 0
     2fe:	0e 94 dd 09 	call	0x13ba	; 0x13ba <__udivmodhi4>
     302:	c0 96       	adiw	r24, 0x30	; 48
     304:	90 93 af 00 	sts	0x00AF, r25
     308:	80 93 ae 00 	sts	0x00AE, r24
     30c:	e4 e0       	ldi	r30, 0x04	; 4
     30e:	f0 e0       	ldi	r31, 0x00	; 0
     310:	26 c0       	rjmp	.+76     	; 0x35e <LCD_u16ReturnString+0xb8>
    	Local_u16ProcessedString[Local_u8Counter++]=inputValue / 10 +'0'; //first number
    	Local_u16ProcessedString[Local_u8Counter++]=inputValue % 10 +'0';//Second number
    }
    else if (inputValue < 999)
    {
    	Local_u16ProcessedString[Local_u8Counter++]=(inputValue / 100) +'0'; //first number
     312:	c9 01       	movw	r24, r18
     314:	64 e6       	ldi	r22, 0x64	; 100
     316:	70 e0       	ldi	r23, 0x00	; 0
     318:	0e 94 dd 09 	call	0x13ba	; 0x13ba <__udivmodhi4>
     31c:	60 5d       	subi	r22, 0xD0	; 208
     31e:	7f 4f       	sbci	r23, 0xFF	; 255
     320:	70 93 a9 00 	sts	0x00A9, r23
     324:	60 93 a8 00 	sts	0x00A8, r22
    	Local_u16ProcessedString[Local_u8Counter++]=((inputValue / 10) % 10) +'0';//Second number
     328:	c9 01       	movw	r24, r18
     32a:	6a e0       	ldi	r22, 0x0A	; 10
     32c:	70 e0       	ldi	r23, 0x00	; 0
     32e:	0e 94 dd 09 	call	0x13ba	; 0x13ba <__udivmodhi4>
     332:	cb 01       	movw	r24, r22
     334:	6a e0       	ldi	r22, 0x0A	; 10
     336:	70 e0       	ldi	r23, 0x00	; 0
     338:	0e 94 dd 09 	call	0x13ba	; 0x13ba <__udivmodhi4>
     33c:	c0 96       	adiw	r24, 0x30	; 48
     33e:	90 93 ab 00 	sts	0x00AB, r25
     342:	80 93 aa 00 	sts	0x00AA, r24
    	Local_u16ProcessedString[Local_u8Counter++]=inputValue % 10 +'0';//Third number
     346:	c9 01       	movw	r24, r18
     348:	6a e0       	ldi	r22, 0x0A	; 10
     34a:	70 e0       	ldi	r23, 0x00	; 0
     34c:	0e 94 dd 09 	call	0x13ba	; 0x13ba <__udivmodhi4>
     350:	c0 96       	adiw	r24, 0x30	; 48
     352:	90 93 ad 00 	sts	0x00AD, r25
     356:	80 93 ac 00 	sts	0x00AC, r24
     35a:	e3 e0       	ldi	r30, 0x03	; 3
     35c:	f0 e0       	ldi	r31, 0x00	; 0
    	Local_u16ProcessedString[Local_u8Counter++]=((inputValue / 10) % 10) +'0';//Third number
    	Local_u16ProcessedString[Local_u8Counter++]=inputValue % 10 +'0';//Forth number
    }
    else;//nothing

    Local_u16ProcessedString[Local_u8Counter]='\0';//last number
     35e:	ee 0f       	add	r30, r30
     360:	ff 1f       	adc	r31, r31
     362:	e8 55       	subi	r30, 0x58	; 88
     364:	ff 4f       	sbci	r31, 0xFF	; 255
     366:	11 82       	std	Z+1, r1	; 0x01
     368:	10 82       	st	Z, r1
    return Local_u16ProcessedString; // Return the processed string.
}
     36a:	88 ea       	ldi	r24, 0xA8	; 168
     36c:	90 e0       	ldi	r25, 0x00	; 0
     36e:	08 95       	ret
    static u16 Local_u16ProcessedString[5]; // Return a string of 3 digits.
    u8 Local_u8Counter=0; // Brute-force counter for first digit.

    if (inputValue < 99)
    {
    	Local_u16ProcessedString[Local_u8Counter++]=inputValue / 10 +'0'; //first number
     370:	6a e0       	ldi	r22, 0x0A	; 10
     372:	70 e0       	ldi	r23, 0x00	; 0
     374:	0e 94 dd 09 	call	0x13ba	; 0x13ba <__udivmodhi4>
     378:	60 5d       	subi	r22, 0xD0	; 208
     37a:	7f 4f       	sbci	r23, 0xFF	; 255
     37c:	70 93 a9 00 	sts	0x00A9, r23
     380:	60 93 a8 00 	sts	0x00A8, r22
    	Local_u16ProcessedString[Local_u8Counter++]=inputValue % 10 +'0';//Second number
     384:	c9 01       	movw	r24, r18
     386:	6a e0       	ldi	r22, 0x0A	; 10
     388:	70 e0       	ldi	r23, 0x00	; 0
     38a:	0e 94 dd 09 	call	0x13ba	; 0x13ba <__udivmodhi4>
     38e:	c0 96       	adiw	r24, 0x30	; 48
     390:	90 93 ab 00 	sts	0x00AB, r25
     394:	80 93 aa 00 	sts	0x00AA, r24
     398:	e2 e0       	ldi	r30, 0x02	; 2
     39a:	f0 e0       	ldi	r31, 0x00	; 0
     39c:	e0 cf       	rjmp	.-64     	; 0x35e <LCD_u16ReturnString+0xb8>
    {
    	Local_u16ProcessedString[Local_u8Counter++]=(inputValue / 100) +'0'; //first number
    	Local_u16ProcessedString[Local_u8Counter++]=((inputValue / 10) % 10) +'0';//Second number
    	Local_u16ProcessedString[Local_u8Counter++]=inputValue % 10 +'0';//Third number
    }
    else if (inputValue < 1024)
     39e:	e0 e0       	ldi	r30, 0x00	; 0
     3a0:	f0 e0       	ldi	r31, 0x00	; 0
     3a2:	dd cf       	rjmp	.-70     	; 0x35e <LCD_u16ReturnString+0xb8>

000003a4 <LCD_EnableLcd>:
	LCD_VoidCmd(0x01);
}
/*****************************************************************/
void LCD_EnableLcd(void)
{
	DIO_u8WritePinVal(LCD_u8Enable,DIO_u8HIGH );
     3a4:	8a e1       	ldi	r24, 0x1A	; 26
     3a6:	61 e0       	ldi	r22, 0x01	; 1
     3a8:	0e 94 29 01 	call	0x252	; 0x252 <DIO_u8WritePinVal>
     3ac:	80 e0       	ldi	r24, 0x00	; 0
     3ae:	90 e0       	ldi	r25, 0x00	; 0
	Delay_ms_Max1s(1);
     3b0:	00 00       	nop
     3b2:	01 96       	adiw	r24, 0x01	; 1
     3b4:	21 e0       	ldi	r18, 0x01	; 1
     3b6:	84 3f       	cpi	r24, 0xF4	; 244
     3b8:	92 07       	cpc	r25, r18
     3ba:	d1 f7       	brne	.-12     	; 0x3b0 <LCD_EnableLcd+0xc>
	DIO_u8WritePinVal(LCD_u8Enable,DIO_u8LOW );
     3bc:	8a e1       	ldi	r24, 0x1A	; 26
     3be:	60 e0       	ldi	r22, 0x00	; 0
     3c0:	0e 94 29 01 	call	0x252	; 0x252 <DIO_u8WritePinVal>
     3c4:	80 e0       	ldi	r24, 0x00	; 0
     3c6:	90 e0       	ldi	r25, 0x00	; 0
	Delay_ms_Max1s(1);
     3c8:	00 00       	nop
     3ca:	01 96       	adiw	r24, 0x01	; 1
     3cc:	21 e0       	ldi	r18, 0x01	; 1
     3ce:	84 3f       	cpi	r24, 0xF4	; 244
     3d0:	92 07       	cpc	r25, r18
     3d2:	d1 f7       	brne	.-12     	; 0x3c8 <LCD_EnableLcd+0x24>
}
     3d4:	08 95       	ret

000003d6 <LCD_WaitLcd>:

	return ;
}
/*****************************************************************/
void LCD_WaitLcd(void)
{
     3d6:	0f 93       	push	r16
     3d8:	1f 93       	push	r17
     3da:	df 93       	push	r29
     3dc:	cf 93       	push	r28
     3de:	0f 92       	push	r0
     3e0:	cd b7       	in	r28, 0x3d	; 61
     3e2:	de b7       	in	r29, 0x3e	; 62
	DIO_u8WritePinDir(LCD_u8D1,DIO_u8INPUT);//lazm el 4 yb2o i/p 3shan ama b2lb enable mn high l low bib3t lcd btb3t high
	DIO_u8WritePinDir(LCD_u8D2,DIO_u8INPUT);//lazm el 4 yb2o i/p 3shan ama b2lb enable mn high l low bib3t lcd btb3t high
	DIO_u8WritePinDir(LCD_u8D3,DIO_u8INPUT);//lazm el 4 yb2o i/p 3shan ama b2lb enable mn high l low bib3t lcd btb3t high
	DIO_u8WritePinVal(LCD_u8ReadWrite,DIO_u8HIGH);//rw=1.
	#elif (LCD_u8LcdMode == LCD_u8Bit8)
	DIO_u8WritePinDir(LCD_u8D0,DIO_u8INPUT);
     3e4:	80 e1       	ldi	r24, 0x10	; 16
     3e6:	60 e0       	ldi	r22, 0x00	; 0
     3e8:	0e 94 d6 00 	call	0x1ac	; 0x1ac <DIO_u8WritePinDir>
	DIO_u8WritePinDir(LCD_u8D1,DIO_u8INPUT);
     3ec:	81 e1       	ldi	r24, 0x11	; 17
     3ee:	60 e0       	ldi	r22, 0x00	; 0
     3f0:	0e 94 d6 00 	call	0x1ac	; 0x1ac <DIO_u8WritePinDir>
	DIO_u8WritePinDir(LCD_u8D2,DIO_u8INPUT);
     3f4:	82 e1       	ldi	r24, 0x12	; 18
     3f6:	60 e0       	ldi	r22, 0x00	; 0
     3f8:	0e 94 d6 00 	call	0x1ac	; 0x1ac <DIO_u8WritePinDir>
	DIO_u8WritePinDir(LCD_u8D3,DIO_u8INPUT);
     3fc:	83 e1       	ldi	r24, 0x13	; 19
     3fe:	60 e0       	ldi	r22, 0x00	; 0
     400:	0e 94 d6 00 	call	0x1ac	; 0x1ac <DIO_u8WritePinDir>
	DIO_u8WritePinDir(LCD_u8D4,DIO_u8INPUT);
     404:	84 e1       	ldi	r24, 0x14	; 20
     406:	60 e0       	ldi	r22, 0x00	; 0
     408:	0e 94 d6 00 	call	0x1ac	; 0x1ac <DIO_u8WritePinDir>
	DIO_u8WritePinDir(LCD_u8D5,DIO_u8INPUT);
     40c:	85 e1       	ldi	r24, 0x15	; 21
     40e:	60 e0       	ldi	r22, 0x00	; 0
     410:	0e 94 d6 00 	call	0x1ac	; 0x1ac <DIO_u8WritePinDir>
	DIO_u8WritePinDir(LCD_u8D6,DIO_u8INPUT);
     414:	86 e1       	ldi	r24, 0x16	; 22
     416:	60 e0       	ldi	r22, 0x00	; 0
     418:	0e 94 d6 00 	call	0x1ac	; 0x1ac <DIO_u8WritePinDir>
	DIO_u8WritePinDir(LCD_u8D7,DIO_u8INPUT);
     41c:	87 e1       	ldi	r24, 0x17	; 23
     41e:	60 e0       	ldi	r22, 0x00	; 0
     420:	0e 94 d6 00 	call	0x1ac	; 0x1ac <DIO_u8WritePinDir>
	DIO_u8WritePinVal(LCD_u8ReadWrite,DIO_u8HIGH);//rw=1.
     424:	89 e1       	ldi	r24, 0x19	; 25
     426:	61 e0       	ldi	r22, 0x01	; 1
     428:	0e 94 29 01 	call	0x252	; 0x252 <DIO_u8WritePinVal>
	#endif
	DIO_u8WritePinVal(LCD_u8Reset,DIO_u8LOW);//rs=0.
     42c:	88 e1       	ldi	r24, 0x18	; 24
     42e:	60 e0       	ldi	r22, 0x00	; 0
     430:	0e 94 29 01 	call	0x252	; 0x252 <DIO_u8WritePinVal>
     434:	8e 01       	movw	r16, r28
     436:	0f 5f       	subi	r16, 0xFF	; 255
     438:	1f 4f       	sbci	r17, 0xFF	; 255
	do
	{
		Local_u8ValBusyFlag=0;
     43a:	19 82       	std	Y+1, r1	; 0x01
		DIO_u8WritePinVal(LCD_u8Enable,DIO_u8HIGH);//Enable=1.
     43c:	8a e1       	ldi	r24, 0x1A	; 26
     43e:	61 e0       	ldi	r22, 0x01	; 1
     440:	0e 94 29 01 	call	0x252	; 0x252 <DIO_u8WritePinVal>
     444:	80 e0       	ldi	r24, 0x00	; 0
     446:	90 e0       	ldi	r25, 0x00	; 0
		Delay_ms_Max1s(1);
     448:	00 00       	nop
     44a:	01 96       	adiw	r24, 0x01	; 1
     44c:	21 e0       	ldi	r18, 0x01	; 1
     44e:	84 3f       	cpi	r24, 0xF4	; 244
     450:	92 07       	cpc	r25, r18
     452:	d1 f7       	brne	.-12     	; 0x448 <LCD_WaitLcd+0x72>
		#if (LCD_u8LcdMode == LCD_u8Bit4)
		DIO_u8ReadPinVal(LCD_u8D3,&Local_u8ValBusyFlag );
		#elif (LCD_u8LcdMode == LCD_u8Bit8)
		DIO_u8ReadPinVal(LCD_u8D7,&Local_u8ValBusyFlag );
     454:	87 e1       	ldi	r24, 0x17	; 23
     456:	b8 01       	movw	r22, r16
     458:	0e 94 00 01 	call	0x200	; 0x200 <DIO_u8ReadPinVal>
     45c:	80 e0       	ldi	r24, 0x00	; 0
     45e:	90 e0       	ldi	r25, 0x00	; 0
		#endif
		Delay_ms_Max1s(1);
     460:	00 00       	nop
     462:	01 96       	adiw	r24, 0x01	; 1
     464:	21 e0       	ldi	r18, 0x01	; 1
     466:	84 3f       	cpi	r24, 0xF4	; 244
     468:	92 07       	cpc	r25, r18
     46a:	d1 f7       	brne	.-12     	; 0x460 <LCD_WaitLcd+0x8a>
		DIO_u8WritePinVal(LCD_u8Enable,DIO_u8LOW);//e=0.
     46c:	8a e1       	ldi	r24, 0x1A	; 26
     46e:	60 e0       	ldi	r22, 0x00	; 0
     470:	0e 94 29 01 	call	0x252	; 0x252 <DIO_u8WritePinVal>
     474:	80 e0       	ldi	r24, 0x00	; 0
     476:	90 e0       	ldi	r25, 0x00	; 0
		Delay_ms_Max1s(1);
     478:	00 00       	nop
     47a:	01 96       	adiw	r24, 0x01	; 1
     47c:	21 e0       	ldi	r18, 0x01	; 1
     47e:	84 3f       	cpi	r24, 0xF4	; 244
     480:	92 07       	cpc	r25, r18
     482:	d1 f7       	brne	.-12     	; 0x478 <LCD_WaitLcd+0xa2>

		DIO_u8WritePinVal(LCD_u8Enable,DIO_u8HIGH);//e=1
     484:	8a e1       	ldi	r24, 0x1A	; 26
     486:	61 e0       	ldi	r22, 0x01	; 1
     488:	0e 94 29 01 	call	0x252	; 0x252 <DIO_u8WritePinVal>
     48c:	80 e0       	ldi	r24, 0x00	; 0
     48e:	90 e0       	ldi	r25, 0x00	; 0
		Delay_ms_Max1s(1);
     490:	00 00       	nop
     492:	01 96       	adiw	r24, 0x01	; 1
     494:	21 e0       	ldi	r18, 0x01	; 1
     496:	84 3f       	cpi	r24, 0xF4	; 244
     498:	92 07       	cpc	r25, r18
     49a:	d1 f7       	brne	.-12     	; 0x490 <LCD_WaitLcd+0xba>
	}while(Local_u8ValBusyFlag == LCD_u8Busy);
     49c:	89 81       	ldd	r24, Y+1	; 0x01
     49e:	81 30       	cpi	r24, 0x01	; 1
     4a0:	61 f2       	breq	.-104    	; 0x43a <LCD_WaitLcd+0x64>
	DIO_u8WritePinVal(LCD_u8ReadWrite,DIO_u8LOW);//rw=0.
     4a2:	89 e1       	ldi	r24, 0x19	; 25
     4a4:	60 e0       	ldi	r22, 0x00	; 0
     4a6:	0e 94 29 01 	call	0x252	; 0x252 <DIO_u8WritePinVal>
	DIO_u8WritePinDir(LCD_u8D1,DIO_u8OUTPUT);
	DIO_u8WritePinDir(LCD_u8D2,DIO_u8OUTPUT);
	DIO_u8WritePinDir(LCD_u8D3,DIO_u8OUTPUT);
	Delay_ms_Max1s(1);
	#elif (LCD_u8LcdMode == LCD_u8Bit8)
	DIO_u8WritePinDir(LCD_u8D0,DIO_u8OUTPUT);
     4aa:	80 e1       	ldi	r24, 0x10	; 16
     4ac:	61 e0       	ldi	r22, 0x01	; 1
     4ae:	0e 94 d6 00 	call	0x1ac	; 0x1ac <DIO_u8WritePinDir>
	DIO_u8WritePinDir(LCD_u8D1,DIO_u8OUTPUT);
     4b2:	81 e1       	ldi	r24, 0x11	; 17
     4b4:	61 e0       	ldi	r22, 0x01	; 1
     4b6:	0e 94 d6 00 	call	0x1ac	; 0x1ac <DIO_u8WritePinDir>
	DIO_u8WritePinDir(LCD_u8D2,DIO_u8OUTPUT);
     4ba:	82 e1       	ldi	r24, 0x12	; 18
     4bc:	61 e0       	ldi	r22, 0x01	; 1
     4be:	0e 94 d6 00 	call	0x1ac	; 0x1ac <DIO_u8WritePinDir>
	DIO_u8WritePinDir(LCD_u8D3,DIO_u8OUTPUT);
     4c2:	83 e1       	ldi	r24, 0x13	; 19
     4c4:	61 e0       	ldi	r22, 0x01	; 1
     4c6:	0e 94 d6 00 	call	0x1ac	; 0x1ac <DIO_u8WritePinDir>
	DIO_u8WritePinDir(LCD_u8D4,DIO_u8OUTPUT);
     4ca:	84 e1       	ldi	r24, 0x14	; 20
     4cc:	61 e0       	ldi	r22, 0x01	; 1
     4ce:	0e 94 d6 00 	call	0x1ac	; 0x1ac <DIO_u8WritePinDir>
	DIO_u8WritePinDir(LCD_u8D5,DIO_u8OUTPUT);
     4d2:	85 e1       	ldi	r24, 0x15	; 21
     4d4:	61 e0       	ldi	r22, 0x01	; 1
     4d6:	0e 94 d6 00 	call	0x1ac	; 0x1ac <DIO_u8WritePinDir>
	DIO_u8WritePinDir(LCD_u8D6,DIO_u8OUTPUT);
     4da:	86 e1       	ldi	r24, 0x16	; 22
     4dc:	61 e0       	ldi	r22, 0x01	; 1
     4de:	0e 94 d6 00 	call	0x1ac	; 0x1ac <DIO_u8WritePinDir>
	DIO_u8WritePinDir(LCD_u8D7,DIO_u8OUTPUT);
     4e2:	87 e1       	ldi	r24, 0x17	; 23
     4e4:	61 e0       	ldi	r22, 0x01	; 1
     4e6:	0e 94 d6 00 	call	0x1ac	; 0x1ac <DIO_u8WritePinDir>
	#endif
}
     4ea:	0f 90       	pop	r0
     4ec:	cf 91       	pop	r28
     4ee:	df 91       	pop	r29
     4f0:	1f 91       	pop	r17
     4f2:	0f 91       	pop	r16
     4f4:	08 95       	ret

000004f6 <LCD_VoidData>:
	DIO_u8WritePinVal(LCD_u8D3,DIO_u8LOW);
}
*/
/*****************************************************************/
void LCD_VoidData(u8 LCD_u8Data)
{
     4f6:	1f 93       	push	r17
     4f8:	18 2f       	mov	r17, r24
	LCD_WaitLcd();
     4fa:	0e 94 eb 01 	call	0x3d6	; 0x3d6 <LCD_WaitLcd>
	#if (LCD_u8LcdMode == LCD_u8Bit8)

	DIO_u8WritePinVal(LCD_u8Reset,DIO_u8HIGH );
     4fe:	88 e1       	ldi	r24, 0x18	; 24
     500:	61 e0       	ldi	r22, 0x01	; 1
     502:	0e 94 29 01 	call	0x252	; 0x252 <DIO_u8WritePinVal>

	DIO_u8WritePinVal(LCD_u8D0,(LCD_u8Data&Lcd_u8Bit0 )  );
     506:	61 2f       	mov	r22, r17
     508:	61 70       	andi	r22, 0x01	; 1
     50a:	80 e1       	ldi	r24, 0x10	; 16
     50c:	0e 94 29 01 	call	0x252	; 0x252 <DIO_u8WritePinVal>
	DIO_u8WritePinVal(LCD_u8D1,(LCD_u8Data&Lcd_u8Bit1 )  );
     510:	61 2f       	mov	r22, r17
     512:	62 70       	andi	r22, 0x02	; 2
     514:	81 e1       	ldi	r24, 0x11	; 17
     516:	0e 94 29 01 	call	0x252	; 0x252 <DIO_u8WritePinVal>
	DIO_u8WritePinVal(LCD_u8D2,(LCD_u8Data&Lcd_u8Bit2 )  );
     51a:	61 2f       	mov	r22, r17
     51c:	64 70       	andi	r22, 0x04	; 4
     51e:	82 e1       	ldi	r24, 0x12	; 18
     520:	0e 94 29 01 	call	0x252	; 0x252 <DIO_u8WritePinVal>
	DIO_u8WritePinVal(LCD_u8D3,(LCD_u8Data&Lcd_u8Bit3 )  );
     524:	61 2f       	mov	r22, r17
     526:	68 70       	andi	r22, 0x08	; 8
     528:	83 e1       	ldi	r24, 0x13	; 19
     52a:	0e 94 29 01 	call	0x252	; 0x252 <DIO_u8WritePinVal>
	DIO_u8WritePinVal(LCD_u8D4,(LCD_u8Data&Lcd_u8Bit4 )  );
     52e:	61 2f       	mov	r22, r17
     530:	60 71       	andi	r22, 0x10	; 16
     532:	84 e1       	ldi	r24, 0x14	; 20
     534:	0e 94 29 01 	call	0x252	; 0x252 <DIO_u8WritePinVal>
	DIO_u8WritePinVal(LCD_u8D5,(LCD_u8Data&Lcd_u8Bit5 )  );
     538:	61 2f       	mov	r22, r17
     53a:	60 72       	andi	r22, 0x20	; 32
     53c:	85 e1       	ldi	r24, 0x15	; 21
     53e:	0e 94 29 01 	call	0x252	; 0x252 <DIO_u8WritePinVal>
	DIO_u8WritePinVal(LCD_u8D6,(LCD_u8Data&Lcd_u8Bit6 )  );
     542:	61 2f       	mov	r22, r17
     544:	60 74       	andi	r22, 0x40	; 64
     546:	86 e1       	ldi	r24, 0x16	; 22
     548:	0e 94 29 01 	call	0x252	; 0x252 <DIO_u8WritePinVal>
	DIO_u8WritePinVal(LCD_u8D7,(LCD_u8Data&Lcd_u8Bit7 )  );
     54c:	10 78       	andi	r17, 0x80	; 128
     54e:	87 e1       	ldi	r24, 0x17	; 23
     550:	61 2f       	mov	r22, r17
     552:	0e 94 29 01 	call	0x252	; 0x252 <DIO_u8WritePinVal>
	LCD_VoidCmd(0x01);
}
/*****************************************************************/
void LCD_EnableLcd(void)
{
	DIO_u8WritePinVal(LCD_u8Enable,DIO_u8HIGH );
     556:	8a e1       	ldi	r24, 0x1A	; 26
     558:	61 e0       	ldi	r22, 0x01	; 1
     55a:	0e 94 29 01 	call	0x252	; 0x252 <DIO_u8WritePinVal>
     55e:	80 e0       	ldi	r24, 0x00	; 0
     560:	90 e0       	ldi	r25, 0x00	; 0
	Delay_ms_Max1s(1);
     562:	00 00       	nop
     564:	01 96       	adiw	r24, 0x01	; 1
     566:	21 e0       	ldi	r18, 0x01	; 1
     568:	84 3f       	cpi	r24, 0xF4	; 244
     56a:	92 07       	cpc	r25, r18
     56c:	d1 f7       	brne	.-12     	; 0x562 <LCD_VoidData+0x6c>
	DIO_u8WritePinVal(LCD_u8Enable,DIO_u8LOW );
     56e:	8a e1       	ldi	r24, 0x1A	; 26
     570:	60 e0       	ldi	r22, 0x00	; 0
     572:	0e 94 29 01 	call	0x252	; 0x252 <DIO_u8WritePinVal>
     576:	80 e0       	ldi	r24, 0x00	; 0
     578:	90 e0       	ldi	r25, 0x00	; 0
	Delay_ms_Max1s(1);
     57a:	00 00       	nop
     57c:	01 96       	adiw	r24, 0x01	; 1
     57e:	21 e0       	ldi	r18, 0x01	; 1
     580:	84 3f       	cpi	r24, 0xF4	; 244
     582:	92 07       	cpc	r25, r18
     584:	d1 f7       	brne	.-12     	; 0x57a <LCD_VoidData+0x84>

	//Delay_ms_Max1s(50);
	#endif

	return ;
}
     586:	1f 91       	pop	r17
     588:	08 95       	ret

0000058a <LCD_VoidCmd>:
#include "LCD_interface.h"


/*****************************************************************/
void LCD_VoidCmd(u8 LCD_u8Command)
{
     58a:	1f 93       	push	r17
     58c:	18 2f       	mov	r17, r24
	//LCD_u8Port=LCD_u8Command;
	LCD_WaitLcd();
     58e:	0e 94 eb 01 	call	0x3d6	; 0x3d6 <LCD_WaitLcd>
	#if (LCD_u8LcdMode == LCD_u8Bit8)
	DIO_u8WritePinVal(LCD_u8Reset,DIO_u8LOW );
     592:	88 e1       	ldi	r24, 0x18	; 24
     594:	60 e0       	ldi	r22, 0x00	; 0
     596:	0e 94 29 01 	call	0x252	; 0x252 <DIO_u8WritePinVal>

	DIO_u8WritePinVal(LCD_u8D0,(LCD_u8Command&Lcd_u8Bit0 ));
     59a:	61 2f       	mov	r22, r17
     59c:	61 70       	andi	r22, 0x01	; 1
     59e:	80 e1       	ldi	r24, 0x10	; 16
     5a0:	0e 94 29 01 	call	0x252	; 0x252 <DIO_u8WritePinVal>
	DIO_u8WritePinVal(LCD_u8D1,(LCD_u8Command&Lcd_u8Bit1 ));
     5a4:	61 2f       	mov	r22, r17
     5a6:	62 70       	andi	r22, 0x02	; 2
     5a8:	81 e1       	ldi	r24, 0x11	; 17
     5aa:	0e 94 29 01 	call	0x252	; 0x252 <DIO_u8WritePinVal>
	DIO_u8WritePinVal(LCD_u8D2,(LCD_u8Command&Lcd_u8Bit2 ));
     5ae:	61 2f       	mov	r22, r17
     5b0:	64 70       	andi	r22, 0x04	; 4
     5b2:	82 e1       	ldi	r24, 0x12	; 18
     5b4:	0e 94 29 01 	call	0x252	; 0x252 <DIO_u8WritePinVal>
	DIO_u8WritePinVal(LCD_u8D3,(LCD_u8Command&Lcd_u8Bit3 ));
     5b8:	61 2f       	mov	r22, r17
     5ba:	68 70       	andi	r22, 0x08	; 8
     5bc:	83 e1       	ldi	r24, 0x13	; 19
     5be:	0e 94 29 01 	call	0x252	; 0x252 <DIO_u8WritePinVal>
	DIO_u8WritePinVal(LCD_u8D4,(LCD_u8Command&Lcd_u8Bit4 ));
     5c2:	61 2f       	mov	r22, r17
     5c4:	60 71       	andi	r22, 0x10	; 16
     5c6:	84 e1       	ldi	r24, 0x14	; 20
     5c8:	0e 94 29 01 	call	0x252	; 0x252 <DIO_u8WritePinVal>
	DIO_u8WritePinVal(LCD_u8D5,(LCD_u8Command&Lcd_u8Bit5 ));
     5cc:	61 2f       	mov	r22, r17
     5ce:	60 72       	andi	r22, 0x20	; 32
     5d0:	85 e1       	ldi	r24, 0x15	; 21
     5d2:	0e 94 29 01 	call	0x252	; 0x252 <DIO_u8WritePinVal>
	DIO_u8WritePinVal(LCD_u8D6,(LCD_u8Command&Lcd_u8Bit6 ));
     5d6:	61 2f       	mov	r22, r17
     5d8:	60 74       	andi	r22, 0x40	; 64
     5da:	86 e1       	ldi	r24, 0x16	; 22
     5dc:	0e 94 29 01 	call	0x252	; 0x252 <DIO_u8WritePinVal>
	DIO_u8WritePinVal(LCD_u8D7,(LCD_u8Command&Lcd_u8Bit7 ));
     5e0:	10 78       	andi	r17, 0x80	; 128
     5e2:	87 e1       	ldi	r24, 0x17	; 23
     5e4:	61 2f       	mov	r22, r17
     5e6:	0e 94 29 01 	call	0x252	; 0x252 <DIO_u8WritePinVal>
	LCD_VoidCmd(0x01);
}
/*****************************************************************/
void LCD_EnableLcd(void)
{
	DIO_u8WritePinVal(LCD_u8Enable,DIO_u8HIGH );
     5ea:	8a e1       	ldi	r24, 0x1A	; 26
     5ec:	61 e0       	ldi	r22, 0x01	; 1
     5ee:	0e 94 29 01 	call	0x252	; 0x252 <DIO_u8WritePinVal>
     5f2:	80 e0       	ldi	r24, 0x00	; 0
     5f4:	90 e0       	ldi	r25, 0x00	; 0
	Delay_ms_Max1s(1);
     5f6:	00 00       	nop
     5f8:	01 96       	adiw	r24, 0x01	; 1
     5fa:	21 e0       	ldi	r18, 0x01	; 1
     5fc:	84 3f       	cpi	r24, 0xF4	; 244
     5fe:	92 07       	cpc	r25, r18
     600:	d1 f7       	brne	.-12     	; 0x5f6 <LCD_VoidCmd+0x6c>
	DIO_u8WritePinVal(LCD_u8Enable,DIO_u8LOW );
     602:	8a e1       	ldi	r24, 0x1A	; 26
     604:	60 e0       	ldi	r22, 0x00	; 0
     606:	0e 94 29 01 	call	0x252	; 0x252 <DIO_u8WritePinVal>
     60a:	80 e0       	ldi	r24, 0x00	; 0
     60c:	90 e0       	ldi	r25, 0x00	; 0
	Delay_ms_Max1s(1);
     60e:	00 00       	nop
     610:	01 96       	adiw	r24, 0x01	; 1
     612:	21 e0       	ldi	r18, 0x01	; 1
     614:	84 3f       	cpi	r24, 0xF4	; 244
     616:	92 07       	cpc	r25, r18
     618:	d1 f7       	brne	.-12     	; 0x60e <LCD_VoidCmd+0x84>

	//Delay_ms_Max1s(50);
	#endif

	return;
}
     61a:	1f 91       	pop	r17
     61c:	08 95       	ret

0000061e <LCD_VoidString>:

	return;
}
/*****************************************************************/
void LCD_VoidString(u8 *LCD_u8Ptr)
{
     61e:	1f 93       	push	r17
     620:	cf 93       	push	r28
     622:	df 93       	push	r29
     624:	ec 01       	movw	r28, r24
	while(*LCD_u8Ptr)
     626:	18 81       	ld	r17, Y
     628:	11 23       	and	r17, r17
     62a:	09 f4       	brne	.+2      	; 0x62e <LCD_VoidString+0x10>
     62c:	4b c0       	rjmp	.+150    	; 0x6c4 <LCD_VoidString+0xa6>
}
*/
/*****************************************************************/
void LCD_VoidData(u8 LCD_u8Data)
{
	LCD_WaitLcd();
     62e:	0e 94 eb 01 	call	0x3d6	; 0x3d6 <LCD_WaitLcd>
	#if (LCD_u8LcdMode == LCD_u8Bit8)

	DIO_u8WritePinVal(LCD_u8Reset,DIO_u8HIGH );
     632:	88 e1       	ldi	r24, 0x18	; 24
     634:	61 e0       	ldi	r22, 0x01	; 1
     636:	0e 94 29 01 	call	0x252	; 0x252 <DIO_u8WritePinVal>

	DIO_u8WritePinVal(LCD_u8D0,(LCD_u8Data&Lcd_u8Bit0 )  );
     63a:	61 2f       	mov	r22, r17
     63c:	61 70       	andi	r22, 0x01	; 1
     63e:	80 e1       	ldi	r24, 0x10	; 16
     640:	0e 94 29 01 	call	0x252	; 0x252 <DIO_u8WritePinVal>
	DIO_u8WritePinVal(LCD_u8D1,(LCD_u8Data&Lcd_u8Bit1 )  );
     644:	61 2f       	mov	r22, r17
     646:	62 70       	andi	r22, 0x02	; 2
     648:	81 e1       	ldi	r24, 0x11	; 17
     64a:	0e 94 29 01 	call	0x252	; 0x252 <DIO_u8WritePinVal>
	DIO_u8WritePinVal(LCD_u8D2,(LCD_u8Data&Lcd_u8Bit2 )  );
     64e:	61 2f       	mov	r22, r17
     650:	64 70       	andi	r22, 0x04	; 4
     652:	82 e1       	ldi	r24, 0x12	; 18
     654:	0e 94 29 01 	call	0x252	; 0x252 <DIO_u8WritePinVal>
	DIO_u8WritePinVal(LCD_u8D3,(LCD_u8Data&Lcd_u8Bit3 )  );
     658:	61 2f       	mov	r22, r17
     65a:	68 70       	andi	r22, 0x08	; 8
     65c:	83 e1       	ldi	r24, 0x13	; 19
     65e:	0e 94 29 01 	call	0x252	; 0x252 <DIO_u8WritePinVal>
	DIO_u8WritePinVal(LCD_u8D4,(LCD_u8Data&Lcd_u8Bit4 )  );
     662:	61 2f       	mov	r22, r17
     664:	60 71       	andi	r22, 0x10	; 16
     666:	84 e1       	ldi	r24, 0x14	; 20
     668:	0e 94 29 01 	call	0x252	; 0x252 <DIO_u8WritePinVal>
	DIO_u8WritePinVal(LCD_u8D5,(LCD_u8Data&Lcd_u8Bit5 )  );
     66c:	61 2f       	mov	r22, r17
     66e:	60 72       	andi	r22, 0x20	; 32
     670:	85 e1       	ldi	r24, 0x15	; 21
     672:	0e 94 29 01 	call	0x252	; 0x252 <DIO_u8WritePinVal>
	DIO_u8WritePinVal(LCD_u8D6,(LCD_u8Data&Lcd_u8Bit6 )  );
     676:	61 2f       	mov	r22, r17
     678:	60 74       	andi	r22, 0x40	; 64
     67a:	86 e1       	ldi	r24, 0x16	; 22
     67c:	0e 94 29 01 	call	0x252	; 0x252 <DIO_u8WritePinVal>
	DIO_u8WritePinVal(LCD_u8D7,(LCD_u8Data&Lcd_u8Bit7 )  );
     680:	10 78       	andi	r17, 0x80	; 128
     682:	87 e1       	ldi	r24, 0x17	; 23
     684:	61 2f       	mov	r22, r17
     686:	0e 94 29 01 	call	0x252	; 0x252 <DIO_u8WritePinVal>
	LCD_VoidCmd(0x01);
}
/*****************************************************************/
void LCD_EnableLcd(void)
{
	DIO_u8WritePinVal(LCD_u8Enable,DIO_u8HIGH );
     68a:	8a e1       	ldi	r24, 0x1A	; 26
     68c:	61 e0       	ldi	r22, 0x01	; 1
     68e:	0e 94 29 01 	call	0x252	; 0x252 <DIO_u8WritePinVal>
     692:	80 e0       	ldi	r24, 0x00	; 0
     694:	90 e0       	ldi	r25, 0x00	; 0
	Delay_ms_Max1s(1);
     696:	00 00       	nop
     698:	01 96       	adiw	r24, 0x01	; 1
     69a:	21 e0       	ldi	r18, 0x01	; 1
     69c:	84 3f       	cpi	r24, 0xF4	; 244
     69e:	92 07       	cpc	r25, r18
     6a0:	d1 f7       	brne	.-12     	; 0x696 <LCD_VoidString+0x78>
	DIO_u8WritePinVal(LCD_u8Enable,DIO_u8LOW );
     6a2:	8a e1       	ldi	r24, 0x1A	; 26
     6a4:	60 e0       	ldi	r22, 0x00	; 0
     6a6:	0e 94 29 01 	call	0x252	; 0x252 <DIO_u8WritePinVal>
     6aa:	80 e0       	ldi	r24, 0x00	; 0
     6ac:	90 e0       	ldi	r25, 0x00	; 0
	Delay_ms_Max1s(1);
     6ae:	00 00       	nop
     6b0:	01 96       	adiw	r24, 0x01	; 1
     6b2:	21 e0       	ldi	r18, 0x01	; 1
     6b4:	84 3f       	cpi	r24, 0xF4	; 244
     6b6:	92 07       	cpc	r25, r18
     6b8:	d1 f7       	brne	.-12     	; 0x6ae <LCD_VoidString+0x90>
/*****************************************************************/
void LCD_VoidString(u8 *LCD_u8Ptr)
{
	while(*LCD_u8Ptr)
	{
		LCD_VoidData(*LCD_u8Ptr++);
     6ba:	21 96       	adiw	r28, 0x01	; 1
	return;
}
/*****************************************************************/
void LCD_VoidString(u8 *LCD_u8Ptr)
{
	while(*LCD_u8Ptr)
     6bc:	18 81       	ld	r17, Y
     6be:	11 23       	and	r17, r17
     6c0:	09 f0       	breq	.+2      	; 0x6c4 <LCD_VoidString+0xa6>
     6c2:	b5 cf       	rjmp	.-150    	; 0x62e <LCD_VoidString+0x10>
	{
		LCD_VoidData(*LCD_u8Ptr++);
	}
	return;
}
     6c4:	df 91       	pop	r29
     6c6:	cf 91       	pop	r28
     6c8:	1f 91       	pop	r17
     6ca:	08 95       	ret

000006cc <LCD_ClearLcd>:

/*****************************************************************/
void LCD_VoidCmd(u8 LCD_u8Command)
{
	//LCD_u8Port=LCD_u8Command;
	LCD_WaitLcd();
     6cc:	0e 94 eb 01 	call	0x3d6	; 0x3d6 <LCD_WaitLcd>
	#if (LCD_u8LcdMode == LCD_u8Bit8)
	DIO_u8WritePinVal(LCD_u8Reset,DIO_u8LOW );
     6d0:	88 e1       	ldi	r24, 0x18	; 24
     6d2:	60 e0       	ldi	r22, 0x00	; 0
     6d4:	0e 94 29 01 	call	0x252	; 0x252 <DIO_u8WritePinVal>

	DIO_u8WritePinVal(LCD_u8D0,(LCD_u8Command&Lcd_u8Bit0 ));
     6d8:	80 e1       	ldi	r24, 0x10	; 16
     6da:	61 e0       	ldi	r22, 0x01	; 1
     6dc:	0e 94 29 01 	call	0x252	; 0x252 <DIO_u8WritePinVal>
	DIO_u8WritePinVal(LCD_u8D1,(LCD_u8Command&Lcd_u8Bit1 ));
     6e0:	81 e1       	ldi	r24, 0x11	; 17
     6e2:	60 e0       	ldi	r22, 0x00	; 0
     6e4:	0e 94 29 01 	call	0x252	; 0x252 <DIO_u8WritePinVal>
	DIO_u8WritePinVal(LCD_u8D2,(LCD_u8Command&Lcd_u8Bit2 ));
     6e8:	82 e1       	ldi	r24, 0x12	; 18
     6ea:	60 e0       	ldi	r22, 0x00	; 0
     6ec:	0e 94 29 01 	call	0x252	; 0x252 <DIO_u8WritePinVal>
	DIO_u8WritePinVal(LCD_u8D3,(LCD_u8Command&Lcd_u8Bit3 ));
     6f0:	83 e1       	ldi	r24, 0x13	; 19
     6f2:	60 e0       	ldi	r22, 0x00	; 0
     6f4:	0e 94 29 01 	call	0x252	; 0x252 <DIO_u8WritePinVal>
	DIO_u8WritePinVal(LCD_u8D4,(LCD_u8Command&Lcd_u8Bit4 ));
     6f8:	84 e1       	ldi	r24, 0x14	; 20
     6fa:	60 e0       	ldi	r22, 0x00	; 0
     6fc:	0e 94 29 01 	call	0x252	; 0x252 <DIO_u8WritePinVal>
	DIO_u8WritePinVal(LCD_u8D5,(LCD_u8Command&Lcd_u8Bit5 ));
     700:	85 e1       	ldi	r24, 0x15	; 21
     702:	60 e0       	ldi	r22, 0x00	; 0
     704:	0e 94 29 01 	call	0x252	; 0x252 <DIO_u8WritePinVal>
	DIO_u8WritePinVal(LCD_u8D6,(LCD_u8Command&Lcd_u8Bit6 ));
     708:	86 e1       	ldi	r24, 0x16	; 22
     70a:	60 e0       	ldi	r22, 0x00	; 0
     70c:	0e 94 29 01 	call	0x252	; 0x252 <DIO_u8WritePinVal>
	DIO_u8WritePinVal(LCD_u8D7,(LCD_u8Command&Lcd_u8Bit7 ));
     710:	87 e1       	ldi	r24, 0x17	; 23
     712:	60 e0       	ldi	r22, 0x00	; 0
     714:	0e 94 29 01 	call	0x252	; 0x252 <DIO_u8WritePinVal>
	LCD_VoidCmd(0x01);
}
/*****************************************************************/
void LCD_EnableLcd(void)
{
	DIO_u8WritePinVal(LCD_u8Enable,DIO_u8HIGH );
     718:	8a e1       	ldi	r24, 0x1A	; 26
     71a:	61 e0       	ldi	r22, 0x01	; 1
     71c:	0e 94 29 01 	call	0x252	; 0x252 <DIO_u8WritePinVal>
     720:	80 e0       	ldi	r24, 0x00	; 0
     722:	90 e0       	ldi	r25, 0x00	; 0
	Delay_ms_Max1s(1);
     724:	00 00       	nop
     726:	01 96       	adiw	r24, 0x01	; 1
     728:	21 e0       	ldi	r18, 0x01	; 1
     72a:	84 3f       	cpi	r24, 0xF4	; 244
     72c:	92 07       	cpc	r25, r18
     72e:	d1 f7       	brne	.-12     	; 0x724 <LCD_ClearLcd+0x58>
	DIO_u8WritePinVal(LCD_u8Enable,DIO_u8LOW );
     730:	8a e1       	ldi	r24, 0x1A	; 26
     732:	60 e0       	ldi	r22, 0x00	; 0
     734:	0e 94 29 01 	call	0x252	; 0x252 <DIO_u8WritePinVal>
     738:	80 e0       	ldi	r24, 0x00	; 0
     73a:	90 e0       	ldi	r25, 0x00	; 0
	Delay_ms_Max1s(1);
     73c:	00 00       	nop
     73e:	01 96       	adiw	r24, 0x01	; 1
     740:	21 e0       	ldi	r18, 0x01	; 1
     742:	84 3f       	cpi	r24, 0xF4	; 244
     744:	92 07       	cpc	r25, r18
     746:	d1 f7       	brne	.-12     	; 0x73c <LCD_ClearLcd+0x70>
}
/*****************************************************************/
void LCD_ClearLcd(void)
{
	LCD_VoidCmd(0x01);
}
     748:	08 95       	ret

0000074a <LCD_VoidInit>:

/*****************************************************************/
void LCD_VoidCmd(u8 LCD_u8Command)
{
	//LCD_u8Port=LCD_u8Command;
	LCD_WaitLcd();
     74a:	0e 94 eb 01 	call	0x3d6	; 0x3d6 <LCD_WaitLcd>
	#if (LCD_u8LcdMode == LCD_u8Bit8)
	DIO_u8WritePinVal(LCD_u8Reset,DIO_u8LOW );
     74e:	88 e1       	ldi	r24, 0x18	; 24
     750:	60 e0       	ldi	r22, 0x00	; 0
     752:	0e 94 29 01 	call	0x252	; 0x252 <DIO_u8WritePinVal>

	DIO_u8WritePinVal(LCD_u8D0,(LCD_u8Command&Lcd_u8Bit0 ));
     756:	80 e1       	ldi	r24, 0x10	; 16
     758:	60 e0       	ldi	r22, 0x00	; 0
     75a:	0e 94 29 01 	call	0x252	; 0x252 <DIO_u8WritePinVal>
	DIO_u8WritePinVal(LCD_u8D1,(LCD_u8Command&Lcd_u8Bit1 ));
     75e:	81 e1       	ldi	r24, 0x11	; 17
     760:	60 e0       	ldi	r22, 0x00	; 0
     762:	0e 94 29 01 	call	0x252	; 0x252 <DIO_u8WritePinVal>
	DIO_u8WritePinVal(LCD_u8D2,(LCD_u8Command&Lcd_u8Bit2 ));
     766:	82 e1       	ldi	r24, 0x12	; 18
     768:	60 e0       	ldi	r22, 0x00	; 0
     76a:	0e 94 29 01 	call	0x252	; 0x252 <DIO_u8WritePinVal>
	DIO_u8WritePinVal(LCD_u8D3,(LCD_u8Command&Lcd_u8Bit3 ));
     76e:	83 e1       	ldi	r24, 0x13	; 19
     770:	68 e0       	ldi	r22, 0x08	; 8
     772:	0e 94 29 01 	call	0x252	; 0x252 <DIO_u8WritePinVal>
	DIO_u8WritePinVal(LCD_u8D4,(LCD_u8Command&Lcd_u8Bit4 ));
     776:	84 e1       	ldi	r24, 0x14	; 20
     778:	60 e1       	ldi	r22, 0x10	; 16
     77a:	0e 94 29 01 	call	0x252	; 0x252 <DIO_u8WritePinVal>
	DIO_u8WritePinVal(LCD_u8D5,(LCD_u8Command&Lcd_u8Bit5 ));
     77e:	85 e1       	ldi	r24, 0x15	; 21
     780:	60 e2       	ldi	r22, 0x20	; 32
     782:	0e 94 29 01 	call	0x252	; 0x252 <DIO_u8WritePinVal>
	DIO_u8WritePinVal(LCD_u8D6,(LCD_u8Command&Lcd_u8Bit6 ));
     786:	86 e1       	ldi	r24, 0x16	; 22
     788:	60 e0       	ldi	r22, 0x00	; 0
     78a:	0e 94 29 01 	call	0x252	; 0x252 <DIO_u8WritePinVal>
	DIO_u8WritePinVal(LCD_u8D7,(LCD_u8Command&Lcd_u8Bit7 ));
     78e:	87 e1       	ldi	r24, 0x17	; 23
     790:	60 e0       	ldi	r22, 0x00	; 0
     792:	0e 94 29 01 	call	0x252	; 0x252 <DIO_u8WritePinVal>
	LCD_VoidCmd(0x01);
}
/*****************************************************************/
void LCD_EnableLcd(void)
{
	DIO_u8WritePinVal(LCD_u8Enable,DIO_u8HIGH );
     796:	8a e1       	ldi	r24, 0x1A	; 26
     798:	61 e0       	ldi	r22, 0x01	; 1
     79a:	0e 94 29 01 	call	0x252	; 0x252 <DIO_u8WritePinVal>
     79e:	80 e0       	ldi	r24, 0x00	; 0
     7a0:	90 e0       	ldi	r25, 0x00	; 0
	Delay_ms_Max1s(1);
     7a2:	00 00       	nop
     7a4:	01 96       	adiw	r24, 0x01	; 1
     7a6:	21 e0       	ldi	r18, 0x01	; 1
     7a8:	84 3f       	cpi	r24, 0xF4	; 244
     7aa:	92 07       	cpc	r25, r18
     7ac:	d1 f7       	brne	.-12     	; 0x7a2 <LCD_VoidInit+0x58>
	DIO_u8WritePinVal(LCD_u8Enable,DIO_u8LOW );
     7ae:	8a e1       	ldi	r24, 0x1A	; 26
     7b0:	60 e0       	ldi	r22, 0x00	; 0
     7b2:	0e 94 29 01 	call	0x252	; 0x252 <DIO_u8WritePinVal>
     7b6:	80 e0       	ldi	r24, 0x00	; 0
     7b8:	90 e0       	ldi	r25, 0x00	; 0
	Delay_ms_Max1s(1);
     7ba:	00 00       	nop
     7bc:	01 96       	adiw	r24, 0x01	; 1
     7be:	21 e0       	ldi	r18, 0x01	; 1
     7c0:	84 3f       	cpi	r24, 0xF4	; 244
     7c2:	92 07       	cpc	r25, r18
     7c4:	d1 f7       	brne	.-12     	; 0x7ba <LCD_VoidInit+0x70>
     7c6:	80 e0       	ldi	r24, 0x00	; 0
     7c8:	90 e0       	ldi	r25, 0x00	; 0
void LCD_VoidInit(void)
{

	#if (LCD_u8LcdMode == LCD_u8Bit8)
	LCD_VoidCmd(0x38); // initialization of 16X2 LCD in 8bit mode
	Delay_ms_Max1s(20);
     7ca:	00 00       	nop
     7cc:	01 96       	adiw	r24, 0x01	; 1
     7ce:	27 e2       	ldi	r18, 0x27	; 39
     7d0:	80 31       	cpi	r24, 0x10	; 16
     7d2:	92 07       	cpc	r25, r18
     7d4:	d1 f7       	brne	.-12     	; 0x7ca <LCD_VoidInit+0x80>

/*****************************************************************/
void LCD_VoidCmd(u8 LCD_u8Command)
{
	//LCD_u8Port=LCD_u8Command;
	LCD_WaitLcd();
     7d6:	0e 94 eb 01 	call	0x3d6	; 0x3d6 <LCD_WaitLcd>
	#if (LCD_u8LcdMode == LCD_u8Bit8)
	DIO_u8WritePinVal(LCD_u8Reset,DIO_u8LOW );
     7da:	88 e1       	ldi	r24, 0x18	; 24
     7dc:	60 e0       	ldi	r22, 0x00	; 0
     7de:	0e 94 29 01 	call	0x252	; 0x252 <DIO_u8WritePinVal>

	DIO_u8WritePinVal(LCD_u8D0,(LCD_u8Command&Lcd_u8Bit0 ));
     7e2:	80 e1       	ldi	r24, 0x10	; 16
     7e4:	61 e0       	ldi	r22, 0x01	; 1
     7e6:	0e 94 29 01 	call	0x252	; 0x252 <DIO_u8WritePinVal>
	DIO_u8WritePinVal(LCD_u8D1,(LCD_u8Command&Lcd_u8Bit1 ));
     7ea:	81 e1       	ldi	r24, 0x11	; 17
     7ec:	60 e0       	ldi	r22, 0x00	; 0
     7ee:	0e 94 29 01 	call	0x252	; 0x252 <DIO_u8WritePinVal>
	DIO_u8WritePinVal(LCD_u8D2,(LCD_u8Command&Lcd_u8Bit2 ));
     7f2:	82 e1       	ldi	r24, 0x12	; 18
     7f4:	60 e0       	ldi	r22, 0x00	; 0
     7f6:	0e 94 29 01 	call	0x252	; 0x252 <DIO_u8WritePinVal>
	DIO_u8WritePinVal(LCD_u8D3,(LCD_u8Command&Lcd_u8Bit3 ));
     7fa:	83 e1       	ldi	r24, 0x13	; 19
     7fc:	60 e0       	ldi	r22, 0x00	; 0
     7fe:	0e 94 29 01 	call	0x252	; 0x252 <DIO_u8WritePinVal>
	DIO_u8WritePinVal(LCD_u8D4,(LCD_u8Command&Lcd_u8Bit4 ));
     802:	84 e1       	ldi	r24, 0x14	; 20
     804:	60 e0       	ldi	r22, 0x00	; 0
     806:	0e 94 29 01 	call	0x252	; 0x252 <DIO_u8WritePinVal>
	DIO_u8WritePinVal(LCD_u8D5,(LCD_u8Command&Lcd_u8Bit5 ));
     80a:	85 e1       	ldi	r24, 0x15	; 21
     80c:	60 e0       	ldi	r22, 0x00	; 0
     80e:	0e 94 29 01 	call	0x252	; 0x252 <DIO_u8WritePinVal>
	DIO_u8WritePinVal(LCD_u8D6,(LCD_u8Command&Lcd_u8Bit6 ));
     812:	86 e1       	ldi	r24, 0x16	; 22
     814:	60 e0       	ldi	r22, 0x00	; 0
     816:	0e 94 29 01 	call	0x252	; 0x252 <DIO_u8WritePinVal>
	DIO_u8WritePinVal(LCD_u8D7,(LCD_u8Command&Lcd_u8Bit7 ));
     81a:	87 e1       	ldi	r24, 0x17	; 23
     81c:	60 e0       	ldi	r22, 0x00	; 0
     81e:	0e 94 29 01 	call	0x252	; 0x252 <DIO_u8WritePinVal>
	LCD_VoidCmd(0x01);
}
/*****************************************************************/
void LCD_EnableLcd(void)
{
	DIO_u8WritePinVal(LCD_u8Enable,DIO_u8HIGH );
     822:	8a e1       	ldi	r24, 0x1A	; 26
     824:	61 e0       	ldi	r22, 0x01	; 1
     826:	0e 94 29 01 	call	0x252	; 0x252 <DIO_u8WritePinVal>
     82a:	80 e0       	ldi	r24, 0x00	; 0
     82c:	90 e0       	ldi	r25, 0x00	; 0
	Delay_ms_Max1s(1);
     82e:	00 00       	nop
     830:	01 96       	adiw	r24, 0x01	; 1
     832:	21 e0       	ldi	r18, 0x01	; 1
     834:	84 3f       	cpi	r24, 0xF4	; 244
     836:	92 07       	cpc	r25, r18
     838:	d1 f7       	brne	.-12     	; 0x82e <LCD_VoidInit+0xe4>
	DIO_u8WritePinVal(LCD_u8Enable,DIO_u8LOW );
     83a:	8a e1       	ldi	r24, 0x1A	; 26
     83c:	60 e0       	ldi	r22, 0x00	; 0
     83e:	0e 94 29 01 	call	0x252	; 0x252 <DIO_u8WritePinVal>
     842:	80 e0       	ldi	r24, 0x00	; 0
     844:	90 e0       	ldi	r25, 0x00	; 0
	Delay_ms_Max1s(1);
     846:	00 00       	nop
     848:	01 96       	adiw	r24, 0x01	; 1
     84a:	21 e0       	ldi	r18, 0x01	; 1
     84c:	84 3f       	cpi	r24, 0xF4	; 244
     84e:	92 07       	cpc	r25, r18
     850:	d1 f7       	brne	.-12     	; 0x846 <LCD_VoidInit+0xfc>
     852:	80 e0       	ldi	r24, 0x00	; 0
     854:	90 e0       	ldi	r25, 0x00	; 0
	#if (LCD_u8LcdMode == LCD_u8Bit8)
	LCD_VoidCmd(0x38); // initialization of 16X2 LCD in 8bit mode
	Delay_ms_Max1s(20);

	LCD_VoidCmd(0x01); // clear LCD
	Delay_ms_Max1s(1);
     856:	00 00       	nop
     858:	01 96       	adiw	r24, 0x01	; 1
     85a:	21 e0       	ldi	r18, 0x01	; 1
     85c:	84 3f       	cpi	r24, 0xF4	; 244
     85e:	92 07       	cpc	r25, r18
     860:	d1 f7       	brne	.-12     	; 0x856 <LCD_VoidInit+0x10c>

/*****************************************************************/
void LCD_VoidCmd(u8 LCD_u8Command)
{
	//LCD_u8Port=LCD_u8Command;
	LCD_WaitLcd();
     862:	0e 94 eb 01 	call	0x3d6	; 0x3d6 <LCD_WaitLcd>
	#if (LCD_u8LcdMode == LCD_u8Bit8)
	DIO_u8WritePinVal(LCD_u8Reset,DIO_u8LOW );
     866:	88 e1       	ldi	r24, 0x18	; 24
     868:	60 e0       	ldi	r22, 0x00	; 0
     86a:	0e 94 29 01 	call	0x252	; 0x252 <DIO_u8WritePinVal>

	DIO_u8WritePinVal(LCD_u8D0,(LCD_u8Command&Lcd_u8Bit0 ));
     86e:	80 e1       	ldi	r24, 0x10	; 16
     870:	60 e0       	ldi	r22, 0x00	; 0
     872:	0e 94 29 01 	call	0x252	; 0x252 <DIO_u8WritePinVal>
	DIO_u8WritePinVal(LCD_u8D1,(LCD_u8Command&Lcd_u8Bit1 ));
     876:	81 e1       	ldi	r24, 0x11	; 17
     878:	60 e0       	ldi	r22, 0x00	; 0
     87a:	0e 94 29 01 	call	0x252	; 0x252 <DIO_u8WritePinVal>
	DIO_u8WritePinVal(LCD_u8D2,(LCD_u8Command&Lcd_u8Bit2 ));
     87e:	82 e1       	ldi	r24, 0x12	; 18
     880:	64 e0       	ldi	r22, 0x04	; 4
     882:	0e 94 29 01 	call	0x252	; 0x252 <DIO_u8WritePinVal>
	DIO_u8WritePinVal(LCD_u8D3,(LCD_u8Command&Lcd_u8Bit3 ));
     886:	83 e1       	ldi	r24, 0x13	; 19
     888:	68 e0       	ldi	r22, 0x08	; 8
     88a:	0e 94 29 01 	call	0x252	; 0x252 <DIO_u8WritePinVal>
	DIO_u8WritePinVal(LCD_u8D4,(LCD_u8Command&Lcd_u8Bit4 ));
     88e:	84 e1       	ldi	r24, 0x14	; 20
     890:	60 e0       	ldi	r22, 0x00	; 0
     892:	0e 94 29 01 	call	0x252	; 0x252 <DIO_u8WritePinVal>
	DIO_u8WritePinVal(LCD_u8D5,(LCD_u8Command&Lcd_u8Bit5 ));
     896:	85 e1       	ldi	r24, 0x15	; 21
     898:	60 e0       	ldi	r22, 0x00	; 0
     89a:	0e 94 29 01 	call	0x252	; 0x252 <DIO_u8WritePinVal>
	DIO_u8WritePinVal(LCD_u8D6,(LCD_u8Command&Lcd_u8Bit6 ));
     89e:	86 e1       	ldi	r24, 0x16	; 22
     8a0:	60 e0       	ldi	r22, 0x00	; 0
     8a2:	0e 94 29 01 	call	0x252	; 0x252 <DIO_u8WritePinVal>
	DIO_u8WritePinVal(LCD_u8D7,(LCD_u8Command&Lcd_u8Bit7 ));
     8a6:	87 e1       	ldi	r24, 0x17	; 23
     8a8:	60 e0       	ldi	r22, 0x00	; 0
     8aa:	0e 94 29 01 	call	0x252	; 0x252 <DIO_u8WritePinVal>
	LCD_VoidCmd(0x01);
}
/*****************************************************************/
void LCD_EnableLcd(void)
{
	DIO_u8WritePinVal(LCD_u8Enable,DIO_u8HIGH );
     8ae:	8a e1       	ldi	r24, 0x1A	; 26
     8b0:	61 e0       	ldi	r22, 0x01	; 1
     8b2:	0e 94 29 01 	call	0x252	; 0x252 <DIO_u8WritePinVal>
     8b6:	80 e0       	ldi	r24, 0x00	; 0
     8b8:	90 e0       	ldi	r25, 0x00	; 0
	Delay_ms_Max1s(1);
     8ba:	00 00       	nop
     8bc:	01 96       	adiw	r24, 0x01	; 1
     8be:	21 e0       	ldi	r18, 0x01	; 1
     8c0:	84 3f       	cpi	r24, 0xF4	; 244
     8c2:	92 07       	cpc	r25, r18
     8c4:	d1 f7       	brne	.-12     	; 0x8ba <__stack+0x5b>
	DIO_u8WritePinVal(LCD_u8Enable,DIO_u8LOW );
     8c6:	8a e1       	ldi	r24, 0x1A	; 26
     8c8:	60 e0       	ldi	r22, 0x00	; 0
     8ca:	0e 94 29 01 	call	0x252	; 0x252 <DIO_u8WritePinVal>
     8ce:	80 e0       	ldi	r24, 0x00	; 0
     8d0:	90 e0       	ldi	r25, 0x00	; 0
	Delay_ms_Max1s(1);
     8d2:	00 00       	nop
     8d4:	01 96       	adiw	r24, 0x01	; 1
     8d6:	21 e0       	ldi	r18, 0x01	; 1
     8d8:	84 3f       	cpi	r24, 0xF4	; 244
     8da:	92 07       	cpc	r25, r18
     8dc:	d1 f7       	brne	.-12     	; 0x8d2 <__stack+0x73>
     8de:	80 e0       	ldi	r24, 0x00	; 0
     8e0:	90 e0       	ldi	r25, 0x00	; 0

	LCD_VoidCmd(0x01); // clear LCD
	Delay_ms_Max1s(1);

	LCD_VoidCmd(0x0C); // cursor Off// Automatic Increment  No Display shift.
	Delay_ms_Max1s(1);
     8e2:	00 00       	nop
     8e4:	01 96       	adiw	r24, 0x01	; 1
     8e6:	21 e0       	ldi	r18, 0x01	; 1
     8e8:	84 3f       	cpi	r24, 0xF4	; 244
     8ea:	92 07       	cpc	r25, r18
     8ec:	d1 f7       	brne	.-12     	; 0x8e2 <__stack+0x83>

/*****************************************************************/
void LCD_VoidCmd(u8 LCD_u8Command)
{
	//LCD_u8Port=LCD_u8Command;
	LCD_WaitLcd();
     8ee:	0e 94 eb 01 	call	0x3d6	; 0x3d6 <LCD_WaitLcd>
	#if (LCD_u8LcdMode == LCD_u8Bit8)
	DIO_u8WritePinVal(LCD_u8Reset,DIO_u8LOW );
     8f2:	88 e1       	ldi	r24, 0x18	; 24
     8f4:	60 e0       	ldi	r22, 0x00	; 0
     8f6:	0e 94 29 01 	call	0x252	; 0x252 <DIO_u8WritePinVal>

	DIO_u8WritePinVal(LCD_u8D0,(LCD_u8Command&Lcd_u8Bit0 ));
     8fa:	80 e1       	ldi	r24, 0x10	; 16
     8fc:	60 e0       	ldi	r22, 0x00	; 0
     8fe:	0e 94 29 01 	call	0x252	; 0x252 <DIO_u8WritePinVal>
	DIO_u8WritePinVal(LCD_u8D1,(LCD_u8Command&Lcd_u8Bit1 ));
     902:	81 e1       	ldi	r24, 0x11	; 17
     904:	60 e0       	ldi	r22, 0x00	; 0
     906:	0e 94 29 01 	call	0x252	; 0x252 <DIO_u8WritePinVal>
	DIO_u8WritePinVal(LCD_u8D2,(LCD_u8Command&Lcd_u8Bit2 ));
     90a:	82 e1       	ldi	r24, 0x12	; 18
     90c:	60 e0       	ldi	r22, 0x00	; 0
     90e:	0e 94 29 01 	call	0x252	; 0x252 <DIO_u8WritePinVal>
	DIO_u8WritePinVal(LCD_u8D3,(LCD_u8Command&Lcd_u8Bit3 ));
     912:	83 e1       	ldi	r24, 0x13	; 19
     914:	60 e0       	ldi	r22, 0x00	; 0
     916:	0e 94 29 01 	call	0x252	; 0x252 <DIO_u8WritePinVal>
	DIO_u8WritePinVal(LCD_u8D4,(LCD_u8Command&Lcd_u8Bit4 ));
     91a:	84 e1       	ldi	r24, 0x14	; 20
     91c:	60 e0       	ldi	r22, 0x00	; 0
     91e:	0e 94 29 01 	call	0x252	; 0x252 <DIO_u8WritePinVal>
	DIO_u8WritePinVal(LCD_u8D5,(LCD_u8Command&Lcd_u8Bit5 ));
     922:	85 e1       	ldi	r24, 0x15	; 21
     924:	60 e0       	ldi	r22, 0x00	; 0
     926:	0e 94 29 01 	call	0x252	; 0x252 <DIO_u8WritePinVal>
	DIO_u8WritePinVal(LCD_u8D6,(LCD_u8Command&Lcd_u8Bit6 ));
     92a:	86 e1       	ldi	r24, 0x16	; 22
     92c:	60 e0       	ldi	r22, 0x00	; 0
     92e:	0e 94 29 01 	call	0x252	; 0x252 <DIO_u8WritePinVal>
	DIO_u8WritePinVal(LCD_u8D7,(LCD_u8Command&Lcd_u8Bit7 ));
     932:	87 e1       	ldi	r24, 0x17	; 23
     934:	60 e8       	ldi	r22, 0x80	; 128
     936:	0e 94 29 01 	call	0x252	; 0x252 <DIO_u8WritePinVal>
	LCD_VoidCmd(0x01);
}
/*****************************************************************/
void LCD_EnableLcd(void)
{
	DIO_u8WritePinVal(LCD_u8Enable,DIO_u8HIGH );
     93a:	8a e1       	ldi	r24, 0x1A	; 26
     93c:	61 e0       	ldi	r22, 0x01	; 1
     93e:	0e 94 29 01 	call	0x252	; 0x252 <DIO_u8WritePinVal>
     942:	80 e0       	ldi	r24, 0x00	; 0
     944:	90 e0       	ldi	r25, 0x00	; 0
	Delay_ms_Max1s(1);
     946:	00 00       	nop
     948:	01 96       	adiw	r24, 0x01	; 1
     94a:	21 e0       	ldi	r18, 0x01	; 1
     94c:	84 3f       	cpi	r24, 0xF4	; 244
     94e:	92 07       	cpc	r25, r18
     950:	d1 f7       	brne	.-12     	; 0x946 <__stack+0xe7>
	DIO_u8WritePinVal(LCD_u8Enable,DIO_u8LOW );
     952:	8a e1       	ldi	r24, 0x1A	; 26
     954:	60 e0       	ldi	r22, 0x00	; 0
     956:	0e 94 29 01 	call	0x252	; 0x252 <DIO_u8WritePinVal>
     95a:	80 e0       	ldi	r24, 0x00	; 0
     95c:	90 e0       	ldi	r25, 0x00	; 0
	Delay_ms_Max1s(1);
     95e:	00 00       	nop
     960:	01 96       	adiw	r24, 0x01	; 1
     962:	21 e0       	ldi	r18, 0x01	; 1
     964:	84 3f       	cpi	r24, 0xF4	; 244
     966:	92 07       	cpc	r25, r18
     968:	d1 f7       	brne	.-12     	; 0x95e <__stack+0xff>
     96a:	80 e0       	ldi	r24, 0x00	; 0
     96c:	90 e0       	ldi	r25, 0x00	; 0

	LCD_VoidCmd(0x0C); // cursor Off// Automatic Increment  No Display shift.
	Delay_ms_Max1s(1);

	LCD_VoidCmd(0x80); // --- go to first line and --0 is for 0th position
	Delay_ms_Max1s(1);
     96e:	00 00       	nop
     970:	01 96       	adiw	r24, 0x01	; 1
     972:	21 e0       	ldi	r18, 0x01	; 1
     974:	84 3f       	cpi	r24, 0xF4	; 244
     976:	92 07       	cpc	r25, r18
     978:	d1 f7       	brne	.-12     	; 0x96e <__stack+0x10f>
	LCD_VoidCmd(0x01);
	Delay_ms_Max1s(1);
	#endif

	return;
}
     97a:	08 95       	ret

0000097c <LCD_VoidClearScreen>:

/*****************************************************************/
void LCD_VoidCmd(u8 LCD_u8Command)
{
	//LCD_u8Port=LCD_u8Command;
	LCD_WaitLcd();
     97c:	0e 94 eb 01 	call	0x3d6	; 0x3d6 <LCD_WaitLcd>
	#if (LCD_u8LcdMode == LCD_u8Bit8)
	DIO_u8WritePinVal(LCD_u8Reset,DIO_u8LOW );
     980:	88 e1       	ldi	r24, 0x18	; 24
     982:	60 e0       	ldi	r22, 0x00	; 0
     984:	0e 94 29 01 	call	0x252	; 0x252 <DIO_u8WritePinVal>

	DIO_u8WritePinVal(LCD_u8D0,(LCD_u8Command&Lcd_u8Bit0 ));
     988:	80 e1       	ldi	r24, 0x10	; 16
     98a:	61 e0       	ldi	r22, 0x01	; 1
     98c:	0e 94 29 01 	call	0x252	; 0x252 <DIO_u8WritePinVal>
	DIO_u8WritePinVal(LCD_u8D1,(LCD_u8Command&Lcd_u8Bit1 ));
     990:	81 e1       	ldi	r24, 0x11	; 17
     992:	60 e0       	ldi	r22, 0x00	; 0
     994:	0e 94 29 01 	call	0x252	; 0x252 <DIO_u8WritePinVal>
	DIO_u8WritePinVal(LCD_u8D2,(LCD_u8Command&Lcd_u8Bit2 ));
     998:	82 e1       	ldi	r24, 0x12	; 18
     99a:	60 e0       	ldi	r22, 0x00	; 0
     99c:	0e 94 29 01 	call	0x252	; 0x252 <DIO_u8WritePinVal>
	DIO_u8WritePinVal(LCD_u8D3,(LCD_u8Command&Lcd_u8Bit3 ));
     9a0:	83 e1       	ldi	r24, 0x13	; 19
     9a2:	60 e0       	ldi	r22, 0x00	; 0
     9a4:	0e 94 29 01 	call	0x252	; 0x252 <DIO_u8WritePinVal>
	DIO_u8WritePinVal(LCD_u8D4,(LCD_u8Command&Lcd_u8Bit4 ));
     9a8:	84 e1       	ldi	r24, 0x14	; 20
     9aa:	60 e0       	ldi	r22, 0x00	; 0
     9ac:	0e 94 29 01 	call	0x252	; 0x252 <DIO_u8WritePinVal>
	DIO_u8WritePinVal(LCD_u8D5,(LCD_u8Command&Lcd_u8Bit5 ));
     9b0:	85 e1       	ldi	r24, 0x15	; 21
     9b2:	60 e0       	ldi	r22, 0x00	; 0
     9b4:	0e 94 29 01 	call	0x252	; 0x252 <DIO_u8WritePinVal>
	DIO_u8WritePinVal(LCD_u8D6,(LCD_u8Command&Lcd_u8Bit6 ));
     9b8:	86 e1       	ldi	r24, 0x16	; 22
     9ba:	60 e0       	ldi	r22, 0x00	; 0
     9bc:	0e 94 29 01 	call	0x252	; 0x252 <DIO_u8WritePinVal>
	DIO_u8WritePinVal(LCD_u8D7,(LCD_u8Command&Lcd_u8Bit7 ));
     9c0:	87 e1       	ldi	r24, 0x17	; 23
     9c2:	60 e0       	ldi	r22, 0x00	; 0
     9c4:	0e 94 29 01 	call	0x252	; 0x252 <DIO_u8WritePinVal>
	LCD_VoidCmd(0x01);
}
/*****************************************************************/
void LCD_EnableLcd(void)
{
	DIO_u8WritePinVal(LCD_u8Enable,DIO_u8HIGH );
     9c8:	8a e1       	ldi	r24, 0x1A	; 26
     9ca:	61 e0       	ldi	r22, 0x01	; 1
     9cc:	0e 94 29 01 	call	0x252	; 0x252 <DIO_u8WritePinVal>
     9d0:	80 e0       	ldi	r24, 0x00	; 0
     9d2:	90 e0       	ldi	r25, 0x00	; 0
	Delay_ms_Max1s(1);
     9d4:	00 00       	nop
     9d6:	01 96       	adiw	r24, 0x01	; 1
     9d8:	21 e0       	ldi	r18, 0x01	; 1
     9da:	84 3f       	cpi	r24, 0xF4	; 244
     9dc:	92 07       	cpc	r25, r18
     9de:	d1 f7       	brne	.-12     	; 0x9d4 <LCD_VoidClearScreen+0x58>
	DIO_u8WritePinVal(LCD_u8Enable,DIO_u8LOW );
     9e0:	8a e1       	ldi	r24, 0x1A	; 26
     9e2:	60 e0       	ldi	r22, 0x00	; 0
     9e4:	0e 94 29 01 	call	0x252	; 0x252 <DIO_u8WritePinVal>
     9e8:	80 e0       	ldi	r24, 0x00	; 0
     9ea:	90 e0       	ldi	r25, 0x00	; 0
	Delay_ms_Max1s(1);
     9ec:	00 00       	nop
     9ee:	01 96       	adiw	r24, 0x01	; 1
     9f0:	21 e0       	ldi	r18, 0x01	; 1
     9f2:	84 3f       	cpi	r24, 0xF4	; 244
     9f4:	92 07       	cpc	r25, r18
     9f6:	d1 f7       	brne	.-12     	; 0x9ec <LCD_VoidClearScreen+0x70>
/*********************************************************************************************/

void LCD_VoidClearScreen(void)
{
	LCD_VoidCmd(0x01);
}
     9f8:	08 95       	ret

000009fa <LCD_VoidGotoxy>:
	//LCD_VoidString(LCD_u8String);
}
/*********************************************************************************************/

void LCD_VoidGotoxy(u8 LCD_u8x,u8 LCD_u8y)//(rkm el3mod,rkm elsf)
 {
     9fa:	1f 93       	push	r17
    if(LCD_u8y == 1)
     9fc:	61 30       	cpi	r22, 0x01	; 1
     9fe:	09 f4       	brne	.+2      	; 0xa02 <LCD_VoidGotoxy+0x8>
     a00:	4a c0       	rjmp	.+148    	; 0xa96 <LCD_VoidGotoxy+0x9c>
    {
        LCD_VoidCmd(0x80+LCD_u8x);
    }
     else
     {
        LCD_VoidCmd(0xc0+LCD_u8x);
     a02:	18 2f       	mov	r17, r24
     a04:	10 54       	subi	r17, 0x40	; 64

/*****************************************************************/
void LCD_VoidCmd(u8 LCD_u8Command)
{
	//LCD_u8Port=LCD_u8Command;
	LCD_WaitLcd();
     a06:	0e 94 eb 01 	call	0x3d6	; 0x3d6 <LCD_WaitLcd>
	#if (LCD_u8LcdMode == LCD_u8Bit8)
	DIO_u8WritePinVal(LCD_u8Reset,DIO_u8LOW );
     a0a:	88 e1       	ldi	r24, 0x18	; 24
     a0c:	60 e0       	ldi	r22, 0x00	; 0
     a0e:	0e 94 29 01 	call	0x252	; 0x252 <DIO_u8WritePinVal>

	DIO_u8WritePinVal(LCD_u8D0,(LCD_u8Command&Lcd_u8Bit0 ));
     a12:	61 2f       	mov	r22, r17
     a14:	61 70       	andi	r22, 0x01	; 1
     a16:	80 e1       	ldi	r24, 0x10	; 16
     a18:	0e 94 29 01 	call	0x252	; 0x252 <DIO_u8WritePinVal>
	DIO_u8WritePinVal(LCD_u8D1,(LCD_u8Command&Lcd_u8Bit1 ));
     a1c:	61 2f       	mov	r22, r17
     a1e:	62 70       	andi	r22, 0x02	; 2
     a20:	81 e1       	ldi	r24, 0x11	; 17
     a22:	0e 94 29 01 	call	0x252	; 0x252 <DIO_u8WritePinVal>
	DIO_u8WritePinVal(LCD_u8D2,(LCD_u8Command&Lcd_u8Bit2 ));
     a26:	61 2f       	mov	r22, r17
     a28:	64 70       	andi	r22, 0x04	; 4
     a2a:	82 e1       	ldi	r24, 0x12	; 18
     a2c:	0e 94 29 01 	call	0x252	; 0x252 <DIO_u8WritePinVal>
	DIO_u8WritePinVal(LCD_u8D3,(LCD_u8Command&Lcd_u8Bit3 ));
     a30:	61 2f       	mov	r22, r17
     a32:	68 70       	andi	r22, 0x08	; 8
     a34:	83 e1       	ldi	r24, 0x13	; 19
     a36:	0e 94 29 01 	call	0x252	; 0x252 <DIO_u8WritePinVal>
	DIO_u8WritePinVal(LCD_u8D4,(LCD_u8Command&Lcd_u8Bit4 ));
     a3a:	61 2f       	mov	r22, r17
     a3c:	60 71       	andi	r22, 0x10	; 16
     a3e:	84 e1       	ldi	r24, 0x14	; 20
     a40:	0e 94 29 01 	call	0x252	; 0x252 <DIO_u8WritePinVal>
	DIO_u8WritePinVal(LCD_u8D5,(LCD_u8Command&Lcd_u8Bit5 ));
     a44:	61 2f       	mov	r22, r17
     a46:	60 72       	andi	r22, 0x20	; 32
     a48:	85 e1       	ldi	r24, 0x15	; 21
     a4a:	0e 94 29 01 	call	0x252	; 0x252 <DIO_u8WritePinVal>
	DIO_u8WritePinVal(LCD_u8D6,(LCD_u8Command&Lcd_u8Bit6 ));
     a4e:	61 2f       	mov	r22, r17
     a50:	60 74       	andi	r22, 0x40	; 64
     a52:	86 e1       	ldi	r24, 0x16	; 22
     a54:	0e 94 29 01 	call	0x252	; 0x252 <DIO_u8WritePinVal>
	DIO_u8WritePinVal(LCD_u8D7,(LCD_u8Command&Lcd_u8Bit7 ));
     a58:	10 78       	andi	r17, 0x80	; 128
     a5a:	87 e1       	ldi	r24, 0x17	; 23
     a5c:	61 2f       	mov	r22, r17
     a5e:	0e 94 29 01 	call	0x252	; 0x252 <DIO_u8WritePinVal>
	LCD_VoidCmd(0x01);
}
/*****************************************************************/
void LCD_EnableLcd(void)
{
	DIO_u8WritePinVal(LCD_u8Enable,DIO_u8HIGH );
     a62:	8a e1       	ldi	r24, 0x1A	; 26
     a64:	61 e0       	ldi	r22, 0x01	; 1
     a66:	0e 94 29 01 	call	0x252	; 0x252 <DIO_u8WritePinVal>
     a6a:	80 e0       	ldi	r24, 0x00	; 0
     a6c:	90 e0       	ldi	r25, 0x00	; 0
	Delay_ms_Max1s(1);
     a6e:	00 00       	nop
     a70:	01 96       	adiw	r24, 0x01	; 1
     a72:	21 e0       	ldi	r18, 0x01	; 1
     a74:	84 3f       	cpi	r24, 0xF4	; 244
     a76:	92 07       	cpc	r25, r18
     a78:	d1 f7       	brne	.-12     	; 0xa6e <LCD_VoidGotoxy+0x74>
	DIO_u8WritePinVal(LCD_u8Enable,DIO_u8LOW );
     a7a:	8a e1       	ldi	r24, 0x1A	; 26
     a7c:	60 e0       	ldi	r22, 0x00	; 0
     a7e:	0e 94 29 01 	call	0x252	; 0x252 <DIO_u8WritePinVal>
     a82:	80 e0       	ldi	r24, 0x00	; 0
     a84:	90 e0       	ldi	r25, 0x00	; 0
	Delay_ms_Max1s(1);
     a86:	00 00       	nop
     a88:	01 96       	adiw	r24, 0x01	; 1
     a8a:	21 e0       	ldi	r18, 0x01	; 1
     a8c:	84 3f       	cpi	r24, 0xF4	; 244
     a8e:	92 07       	cpc	r25, r18
     a90:	d1 f7       	brne	.-12     	; 0xa86 <LCD_VoidGotoxy+0x8c>
    }
     else
     {
        LCD_VoidCmd(0xc0+LCD_u8x);
     }
 }
     a92:	1f 91       	pop	r17
     a94:	08 95       	ret

void LCD_VoidGotoxy(u8 LCD_u8x,u8 LCD_u8y)//(rkm el3mod,rkm elsf)
 {
    if(LCD_u8y == 1)
    {
        LCD_VoidCmd(0x80+LCD_u8x);
     a96:	18 2f       	mov	r17, r24
     a98:	10 58       	subi	r17, 0x80	; 128

/*****************************************************************/
void LCD_VoidCmd(u8 LCD_u8Command)
{
	//LCD_u8Port=LCD_u8Command;
	LCD_WaitLcd();
     a9a:	0e 94 eb 01 	call	0x3d6	; 0x3d6 <LCD_WaitLcd>
	#if (LCD_u8LcdMode == LCD_u8Bit8)
	DIO_u8WritePinVal(LCD_u8Reset,DIO_u8LOW );
     a9e:	88 e1       	ldi	r24, 0x18	; 24
     aa0:	60 e0       	ldi	r22, 0x00	; 0
     aa2:	0e 94 29 01 	call	0x252	; 0x252 <DIO_u8WritePinVal>

	DIO_u8WritePinVal(LCD_u8D0,(LCD_u8Command&Lcd_u8Bit0 ));
     aa6:	61 2f       	mov	r22, r17
     aa8:	61 70       	andi	r22, 0x01	; 1
     aaa:	80 e1       	ldi	r24, 0x10	; 16
     aac:	0e 94 29 01 	call	0x252	; 0x252 <DIO_u8WritePinVal>
	DIO_u8WritePinVal(LCD_u8D1,(LCD_u8Command&Lcd_u8Bit1 ));
     ab0:	61 2f       	mov	r22, r17
     ab2:	62 70       	andi	r22, 0x02	; 2
     ab4:	81 e1       	ldi	r24, 0x11	; 17
     ab6:	0e 94 29 01 	call	0x252	; 0x252 <DIO_u8WritePinVal>
	DIO_u8WritePinVal(LCD_u8D2,(LCD_u8Command&Lcd_u8Bit2 ));
     aba:	61 2f       	mov	r22, r17
     abc:	64 70       	andi	r22, 0x04	; 4
     abe:	82 e1       	ldi	r24, 0x12	; 18
     ac0:	0e 94 29 01 	call	0x252	; 0x252 <DIO_u8WritePinVal>
	DIO_u8WritePinVal(LCD_u8D3,(LCD_u8Command&Lcd_u8Bit3 ));
     ac4:	61 2f       	mov	r22, r17
     ac6:	68 70       	andi	r22, 0x08	; 8
     ac8:	83 e1       	ldi	r24, 0x13	; 19
     aca:	0e 94 29 01 	call	0x252	; 0x252 <DIO_u8WritePinVal>
	DIO_u8WritePinVal(LCD_u8D4,(LCD_u8Command&Lcd_u8Bit4 ));
     ace:	61 2f       	mov	r22, r17
     ad0:	60 71       	andi	r22, 0x10	; 16
     ad2:	84 e1       	ldi	r24, 0x14	; 20
     ad4:	0e 94 29 01 	call	0x252	; 0x252 <DIO_u8WritePinVal>
	DIO_u8WritePinVal(LCD_u8D5,(LCD_u8Command&Lcd_u8Bit5 ));
     ad8:	61 2f       	mov	r22, r17
     ada:	60 72       	andi	r22, 0x20	; 32
     adc:	85 e1       	ldi	r24, 0x15	; 21
     ade:	0e 94 29 01 	call	0x252	; 0x252 <DIO_u8WritePinVal>
	DIO_u8WritePinVal(LCD_u8D6,(LCD_u8Command&Lcd_u8Bit6 ));
     ae2:	61 2f       	mov	r22, r17
     ae4:	60 74       	andi	r22, 0x40	; 64
     ae6:	86 e1       	ldi	r24, 0x16	; 22
     ae8:	0e 94 29 01 	call	0x252	; 0x252 <DIO_u8WritePinVal>
	DIO_u8WritePinVal(LCD_u8D7,(LCD_u8Command&Lcd_u8Bit7 ));
     aec:	10 78       	andi	r17, 0x80	; 128
     aee:	87 e1       	ldi	r24, 0x17	; 23
     af0:	61 2f       	mov	r22, r17
     af2:	0e 94 29 01 	call	0x252	; 0x252 <DIO_u8WritePinVal>
	LCD_VoidCmd(0x01);
}
/*****************************************************************/
void LCD_EnableLcd(void)
{
	DIO_u8WritePinVal(LCD_u8Enable,DIO_u8HIGH );
     af6:	8a e1       	ldi	r24, 0x1A	; 26
     af8:	61 e0       	ldi	r22, 0x01	; 1
     afa:	0e 94 29 01 	call	0x252	; 0x252 <DIO_u8WritePinVal>
     afe:	80 e0       	ldi	r24, 0x00	; 0
     b00:	90 e0       	ldi	r25, 0x00	; 0
	Delay_ms_Max1s(1);
     b02:	00 00       	nop
     b04:	01 96       	adiw	r24, 0x01	; 1
     b06:	21 e0       	ldi	r18, 0x01	; 1
     b08:	84 3f       	cpi	r24, 0xF4	; 244
     b0a:	92 07       	cpc	r25, r18
     b0c:	d1 f7       	brne	.-12     	; 0xb02 <LCD_VoidGotoxy+0x108>
	DIO_u8WritePinVal(LCD_u8Enable,DIO_u8LOW );
     b0e:	8a e1       	ldi	r24, 0x1A	; 26
     b10:	60 e0       	ldi	r22, 0x00	; 0
     b12:	0e 94 29 01 	call	0x252	; 0x252 <DIO_u8WritePinVal>
     b16:	80 e0       	ldi	r24, 0x00	; 0
     b18:	90 e0       	ldi	r25, 0x00	; 0
	Delay_ms_Max1s(1);
     b1a:	00 00       	nop
     b1c:	01 96       	adiw	r24, 0x01	; 1
     b1e:	21 e0       	ldi	r18, 0x01	; 1
     b20:	84 3f       	cpi	r24, 0xF4	; 244
     b22:	92 07       	cpc	r25, r18
     b24:	d1 f7       	brne	.-12     	; 0xb1a <LCD_VoidGotoxy+0x120>
    }
     else
     {
        LCD_VoidCmd(0xc0+LCD_u8x);
     }
 }
     b26:	1f 91       	pop	r17
     b28:	08 95       	ret

00000b2a <LCD_VoidSendStringxy>:
/*********************************************************************************************/

void LCD_VoidSendStringxy(u8 *LCD_u8str,u8 LCD_u8x,u8 LCD_u8y)//("aktb ely 3aizo",rkm anhih 7th fy el3mod ,rkm el sf)
{
     b2a:	1f 93       	push	r17
     b2c:	cf 93       	push	r28
     b2e:	df 93       	push	r29
     b30:	ec 01       	movw	r28, r24
}
/*********************************************************************************************/

void LCD_VoidGotoxy(u8 LCD_u8x,u8 LCD_u8y)//(rkm el3mod,rkm elsf)
 {
    if(LCD_u8y == 1)
     b32:	41 30       	cpi	r20, 0x01	; 1
     b34:	09 f4       	brne	.+2      	; 0xb38 <LCD_VoidSendStringxy+0xe>
     b36:	9b c0       	rjmp	.+310    	; 0xc6e <LCD_VoidSendStringxy+0x144>
    {
        LCD_VoidCmd(0x80+LCD_u8x);
    }
     else
     {
        LCD_VoidCmd(0xc0+LCD_u8x);
     b38:	16 2f       	mov	r17, r22
     b3a:	10 54       	subi	r17, 0x40	; 64

/*****************************************************************/
void LCD_VoidCmd(u8 LCD_u8Command)
{
	//LCD_u8Port=LCD_u8Command;
	LCD_WaitLcd();
     b3c:	0e 94 eb 01 	call	0x3d6	; 0x3d6 <LCD_WaitLcd>
	#if (LCD_u8LcdMode == LCD_u8Bit8)
	DIO_u8WritePinVal(LCD_u8Reset,DIO_u8LOW );
     b40:	88 e1       	ldi	r24, 0x18	; 24
     b42:	60 e0       	ldi	r22, 0x00	; 0
     b44:	0e 94 29 01 	call	0x252	; 0x252 <DIO_u8WritePinVal>

	DIO_u8WritePinVal(LCD_u8D0,(LCD_u8Command&Lcd_u8Bit0 ));
     b48:	61 2f       	mov	r22, r17
     b4a:	61 70       	andi	r22, 0x01	; 1
     b4c:	80 e1       	ldi	r24, 0x10	; 16
     b4e:	0e 94 29 01 	call	0x252	; 0x252 <DIO_u8WritePinVal>
	DIO_u8WritePinVal(LCD_u8D1,(LCD_u8Command&Lcd_u8Bit1 ));
     b52:	61 2f       	mov	r22, r17
     b54:	62 70       	andi	r22, 0x02	; 2
     b56:	81 e1       	ldi	r24, 0x11	; 17
     b58:	0e 94 29 01 	call	0x252	; 0x252 <DIO_u8WritePinVal>
	DIO_u8WritePinVal(LCD_u8D2,(LCD_u8Command&Lcd_u8Bit2 ));
     b5c:	61 2f       	mov	r22, r17
     b5e:	64 70       	andi	r22, 0x04	; 4
     b60:	82 e1       	ldi	r24, 0x12	; 18
     b62:	0e 94 29 01 	call	0x252	; 0x252 <DIO_u8WritePinVal>
	DIO_u8WritePinVal(LCD_u8D3,(LCD_u8Command&Lcd_u8Bit3 ));
     b66:	61 2f       	mov	r22, r17
     b68:	68 70       	andi	r22, 0x08	; 8
     b6a:	83 e1       	ldi	r24, 0x13	; 19
     b6c:	0e 94 29 01 	call	0x252	; 0x252 <DIO_u8WritePinVal>
	DIO_u8WritePinVal(LCD_u8D4,(LCD_u8Command&Lcd_u8Bit4 ));
     b70:	61 2f       	mov	r22, r17
     b72:	60 71       	andi	r22, 0x10	; 16
     b74:	84 e1       	ldi	r24, 0x14	; 20
     b76:	0e 94 29 01 	call	0x252	; 0x252 <DIO_u8WritePinVal>
	DIO_u8WritePinVal(LCD_u8D5,(LCD_u8Command&Lcd_u8Bit5 ));
     b7a:	61 2f       	mov	r22, r17
     b7c:	60 72       	andi	r22, 0x20	; 32
     b7e:	85 e1       	ldi	r24, 0x15	; 21
     b80:	0e 94 29 01 	call	0x252	; 0x252 <DIO_u8WritePinVal>
	DIO_u8WritePinVal(LCD_u8D6,(LCD_u8Command&Lcd_u8Bit6 ));
     b84:	61 2f       	mov	r22, r17
     b86:	60 74       	andi	r22, 0x40	; 64
     b88:	86 e1       	ldi	r24, 0x16	; 22
     b8a:	0e 94 29 01 	call	0x252	; 0x252 <DIO_u8WritePinVal>
	DIO_u8WritePinVal(LCD_u8D7,(LCD_u8Command&Lcd_u8Bit7 ));
     b8e:	10 78       	andi	r17, 0x80	; 128
     b90:	87 e1       	ldi	r24, 0x17	; 23
     b92:	61 2f       	mov	r22, r17
     b94:	0e 94 29 01 	call	0x252	; 0x252 <DIO_u8WritePinVal>
	LCD_VoidCmd(0x01);
}
/*****************************************************************/
void LCD_EnableLcd(void)
{
	DIO_u8WritePinVal(LCD_u8Enable,DIO_u8HIGH );
     b98:	8a e1       	ldi	r24, 0x1A	; 26
     b9a:	61 e0       	ldi	r22, 0x01	; 1
     b9c:	0e 94 29 01 	call	0x252	; 0x252 <DIO_u8WritePinVal>
     ba0:	80 e0       	ldi	r24, 0x00	; 0
     ba2:	90 e0       	ldi	r25, 0x00	; 0
	Delay_ms_Max1s(1);
     ba4:	00 00       	nop
     ba6:	01 96       	adiw	r24, 0x01	; 1
     ba8:	21 e0       	ldi	r18, 0x01	; 1
     baa:	84 3f       	cpi	r24, 0xF4	; 244
     bac:	92 07       	cpc	r25, r18
     bae:	d1 f7       	brne	.-12     	; 0xba4 <LCD_VoidSendStringxy+0x7a>
	DIO_u8WritePinVal(LCD_u8Enable,DIO_u8LOW );
     bb0:	8a e1       	ldi	r24, 0x1A	; 26
     bb2:	60 e0       	ldi	r22, 0x00	; 0
     bb4:	0e 94 29 01 	call	0x252	; 0x252 <DIO_u8WritePinVal>
     bb8:	80 e0       	ldi	r24, 0x00	; 0
     bba:	90 e0       	ldi	r25, 0x00	; 0
	Delay_ms_Max1s(1);
     bbc:	00 00       	nop
     bbe:	01 96       	adiw	r24, 0x01	; 1
     bc0:	21 e0       	ldi	r18, 0x01	; 1
     bc2:	84 3f       	cpi	r24, 0xF4	; 244
     bc4:	92 07       	cpc	r25, r18
     bc6:	d1 f7       	brne	.-12     	; 0xbbc <LCD_VoidSendStringxy+0x92>
	return;
}
/*****************************************************************/
void LCD_VoidString(u8 *LCD_u8Ptr)
{
	while(*LCD_u8Ptr)
     bc8:	18 81       	ld	r17, Y
     bca:	11 23       	and	r17, r17
     bcc:	09 f4       	brne	.+2      	; 0xbd0 <LCD_VoidSendStringxy+0xa6>
     bce:	4b c0       	rjmp	.+150    	; 0xc66 <LCD_VoidSendStringxy+0x13c>
}
*/
/*****************************************************************/
void LCD_VoidData(u8 LCD_u8Data)
{
	LCD_WaitLcd();
     bd0:	0e 94 eb 01 	call	0x3d6	; 0x3d6 <LCD_WaitLcd>
	#if (LCD_u8LcdMode == LCD_u8Bit8)

	DIO_u8WritePinVal(LCD_u8Reset,DIO_u8HIGH );
     bd4:	88 e1       	ldi	r24, 0x18	; 24
     bd6:	61 e0       	ldi	r22, 0x01	; 1
     bd8:	0e 94 29 01 	call	0x252	; 0x252 <DIO_u8WritePinVal>

	DIO_u8WritePinVal(LCD_u8D0,(LCD_u8Data&Lcd_u8Bit0 )  );
     bdc:	61 2f       	mov	r22, r17
     bde:	61 70       	andi	r22, 0x01	; 1
     be0:	80 e1       	ldi	r24, 0x10	; 16
     be2:	0e 94 29 01 	call	0x252	; 0x252 <DIO_u8WritePinVal>
	DIO_u8WritePinVal(LCD_u8D1,(LCD_u8Data&Lcd_u8Bit1 )  );
     be6:	61 2f       	mov	r22, r17
     be8:	62 70       	andi	r22, 0x02	; 2
     bea:	81 e1       	ldi	r24, 0x11	; 17
     bec:	0e 94 29 01 	call	0x252	; 0x252 <DIO_u8WritePinVal>
	DIO_u8WritePinVal(LCD_u8D2,(LCD_u8Data&Lcd_u8Bit2 )  );
     bf0:	61 2f       	mov	r22, r17
     bf2:	64 70       	andi	r22, 0x04	; 4
     bf4:	82 e1       	ldi	r24, 0x12	; 18
     bf6:	0e 94 29 01 	call	0x252	; 0x252 <DIO_u8WritePinVal>
	DIO_u8WritePinVal(LCD_u8D3,(LCD_u8Data&Lcd_u8Bit3 )  );
     bfa:	61 2f       	mov	r22, r17
     bfc:	68 70       	andi	r22, 0x08	; 8
     bfe:	83 e1       	ldi	r24, 0x13	; 19
     c00:	0e 94 29 01 	call	0x252	; 0x252 <DIO_u8WritePinVal>
	DIO_u8WritePinVal(LCD_u8D4,(LCD_u8Data&Lcd_u8Bit4 )  );
     c04:	61 2f       	mov	r22, r17
     c06:	60 71       	andi	r22, 0x10	; 16
     c08:	84 e1       	ldi	r24, 0x14	; 20
     c0a:	0e 94 29 01 	call	0x252	; 0x252 <DIO_u8WritePinVal>
	DIO_u8WritePinVal(LCD_u8D5,(LCD_u8Data&Lcd_u8Bit5 )  );
     c0e:	61 2f       	mov	r22, r17
     c10:	60 72       	andi	r22, 0x20	; 32
     c12:	85 e1       	ldi	r24, 0x15	; 21
     c14:	0e 94 29 01 	call	0x252	; 0x252 <DIO_u8WritePinVal>
	DIO_u8WritePinVal(LCD_u8D6,(LCD_u8Data&Lcd_u8Bit6 )  );
     c18:	61 2f       	mov	r22, r17
     c1a:	60 74       	andi	r22, 0x40	; 64
     c1c:	86 e1       	ldi	r24, 0x16	; 22
     c1e:	0e 94 29 01 	call	0x252	; 0x252 <DIO_u8WritePinVal>
	DIO_u8WritePinVal(LCD_u8D7,(LCD_u8Data&Lcd_u8Bit7 )  );
     c22:	10 78       	andi	r17, 0x80	; 128
     c24:	87 e1       	ldi	r24, 0x17	; 23
     c26:	61 2f       	mov	r22, r17
     c28:	0e 94 29 01 	call	0x252	; 0x252 <DIO_u8WritePinVal>
	LCD_VoidCmd(0x01);
}
/*****************************************************************/
void LCD_EnableLcd(void)
{
	DIO_u8WritePinVal(LCD_u8Enable,DIO_u8HIGH );
     c2c:	8a e1       	ldi	r24, 0x1A	; 26
     c2e:	61 e0       	ldi	r22, 0x01	; 1
     c30:	0e 94 29 01 	call	0x252	; 0x252 <DIO_u8WritePinVal>
     c34:	80 e0       	ldi	r24, 0x00	; 0
     c36:	90 e0       	ldi	r25, 0x00	; 0
	Delay_ms_Max1s(1);
     c38:	00 00       	nop
     c3a:	01 96       	adiw	r24, 0x01	; 1
     c3c:	21 e0       	ldi	r18, 0x01	; 1
     c3e:	84 3f       	cpi	r24, 0xF4	; 244
     c40:	92 07       	cpc	r25, r18
     c42:	d1 f7       	brne	.-12     	; 0xc38 <LCD_VoidSendStringxy+0x10e>
	DIO_u8WritePinVal(LCD_u8Enable,DIO_u8LOW );
     c44:	8a e1       	ldi	r24, 0x1A	; 26
     c46:	60 e0       	ldi	r22, 0x00	; 0
     c48:	0e 94 29 01 	call	0x252	; 0x252 <DIO_u8WritePinVal>
     c4c:	80 e0       	ldi	r24, 0x00	; 0
     c4e:	90 e0       	ldi	r25, 0x00	; 0
	Delay_ms_Max1s(1);
     c50:	00 00       	nop
     c52:	01 96       	adiw	r24, 0x01	; 1
     c54:	21 e0       	ldi	r18, 0x01	; 1
     c56:	84 3f       	cpi	r24, 0xF4	; 244
     c58:	92 07       	cpc	r25, r18
     c5a:	d1 f7       	brne	.-12     	; 0xc50 <LCD_VoidSendStringxy+0x126>
/*****************************************************************/
void LCD_VoidString(u8 *LCD_u8Ptr)
{
	while(*LCD_u8Ptr)
	{
		LCD_VoidData(*LCD_u8Ptr++);
     c5c:	21 96       	adiw	r28, 0x01	; 1
	return;
}
/*****************************************************************/
void LCD_VoidString(u8 *LCD_u8Ptr)
{
	while(*LCD_u8Ptr)
     c5e:	18 81       	ld	r17, Y
     c60:	11 23       	and	r17, r17
     c62:	09 f0       	breq	.+2      	; 0xc66 <LCD_VoidSendStringxy+0x13c>
     c64:	b5 cf       	rjmp	.-150    	; 0xbd0 <LCD_VoidSendStringxy+0xa6>

void LCD_VoidSendStringxy(u8 *LCD_u8str,u8 LCD_u8x,u8 LCD_u8y)//("aktb ely 3aizo",rkm anhih 7th fy el3mod ,rkm el sf)
{
     LCD_VoidGotoxy(LCD_u8x,LCD_u8y);
     LCD_VoidString(LCD_u8str);
}
     c66:	df 91       	pop	r29
     c68:	cf 91       	pop	r28
     c6a:	1f 91       	pop	r17
     c6c:	08 95       	ret

void LCD_VoidGotoxy(u8 LCD_u8x,u8 LCD_u8y)//(rkm el3mod,rkm elsf)
 {
    if(LCD_u8y == 1)
    {
        LCD_VoidCmd(0x80+LCD_u8x);
     c6e:	16 2f       	mov	r17, r22
     c70:	10 58       	subi	r17, 0x80	; 128

/*****************************************************************/
void LCD_VoidCmd(u8 LCD_u8Command)
{
	//LCD_u8Port=LCD_u8Command;
	LCD_WaitLcd();
     c72:	0e 94 eb 01 	call	0x3d6	; 0x3d6 <LCD_WaitLcd>
	#if (LCD_u8LcdMode == LCD_u8Bit8)
	DIO_u8WritePinVal(LCD_u8Reset,DIO_u8LOW );
     c76:	88 e1       	ldi	r24, 0x18	; 24
     c78:	60 e0       	ldi	r22, 0x00	; 0
     c7a:	0e 94 29 01 	call	0x252	; 0x252 <DIO_u8WritePinVal>

	DIO_u8WritePinVal(LCD_u8D0,(LCD_u8Command&Lcd_u8Bit0 ));
     c7e:	61 2f       	mov	r22, r17
     c80:	61 70       	andi	r22, 0x01	; 1
     c82:	80 e1       	ldi	r24, 0x10	; 16
     c84:	0e 94 29 01 	call	0x252	; 0x252 <DIO_u8WritePinVal>
	DIO_u8WritePinVal(LCD_u8D1,(LCD_u8Command&Lcd_u8Bit1 ));
     c88:	61 2f       	mov	r22, r17
     c8a:	62 70       	andi	r22, 0x02	; 2
     c8c:	81 e1       	ldi	r24, 0x11	; 17
     c8e:	0e 94 29 01 	call	0x252	; 0x252 <DIO_u8WritePinVal>
	DIO_u8WritePinVal(LCD_u8D2,(LCD_u8Command&Lcd_u8Bit2 ));
     c92:	61 2f       	mov	r22, r17
     c94:	64 70       	andi	r22, 0x04	; 4
     c96:	82 e1       	ldi	r24, 0x12	; 18
     c98:	0e 94 29 01 	call	0x252	; 0x252 <DIO_u8WritePinVal>
	DIO_u8WritePinVal(LCD_u8D3,(LCD_u8Command&Lcd_u8Bit3 ));
     c9c:	61 2f       	mov	r22, r17
     c9e:	68 70       	andi	r22, 0x08	; 8
     ca0:	83 e1       	ldi	r24, 0x13	; 19
     ca2:	0e 94 29 01 	call	0x252	; 0x252 <DIO_u8WritePinVal>
	DIO_u8WritePinVal(LCD_u8D4,(LCD_u8Command&Lcd_u8Bit4 ));
     ca6:	61 2f       	mov	r22, r17
     ca8:	60 71       	andi	r22, 0x10	; 16
     caa:	84 e1       	ldi	r24, 0x14	; 20
     cac:	0e 94 29 01 	call	0x252	; 0x252 <DIO_u8WritePinVal>
	DIO_u8WritePinVal(LCD_u8D5,(LCD_u8Command&Lcd_u8Bit5 ));
     cb0:	61 2f       	mov	r22, r17
     cb2:	60 72       	andi	r22, 0x20	; 32
     cb4:	85 e1       	ldi	r24, 0x15	; 21
     cb6:	0e 94 29 01 	call	0x252	; 0x252 <DIO_u8WritePinVal>
	DIO_u8WritePinVal(LCD_u8D6,(LCD_u8Command&Lcd_u8Bit6 ));
     cba:	61 2f       	mov	r22, r17
     cbc:	60 74       	andi	r22, 0x40	; 64
     cbe:	86 e1       	ldi	r24, 0x16	; 22
     cc0:	0e 94 29 01 	call	0x252	; 0x252 <DIO_u8WritePinVal>
	DIO_u8WritePinVal(LCD_u8D7,(LCD_u8Command&Lcd_u8Bit7 ));
     cc4:	10 78       	andi	r17, 0x80	; 128
     cc6:	87 e1       	ldi	r24, 0x17	; 23
     cc8:	61 2f       	mov	r22, r17
     cca:	0e 94 29 01 	call	0x252	; 0x252 <DIO_u8WritePinVal>
	LCD_VoidCmd(0x01);
}
/*****************************************************************/
void LCD_EnableLcd(void)
{
	DIO_u8WritePinVal(LCD_u8Enable,DIO_u8HIGH );
     cce:	8a e1       	ldi	r24, 0x1A	; 26
     cd0:	61 e0       	ldi	r22, 0x01	; 1
     cd2:	0e 94 29 01 	call	0x252	; 0x252 <DIO_u8WritePinVal>
     cd6:	80 e0       	ldi	r24, 0x00	; 0
     cd8:	90 e0       	ldi	r25, 0x00	; 0
	Delay_ms_Max1s(1);
     cda:	00 00       	nop
     cdc:	01 96       	adiw	r24, 0x01	; 1
     cde:	21 e0       	ldi	r18, 0x01	; 1
     ce0:	84 3f       	cpi	r24, 0xF4	; 244
     ce2:	92 07       	cpc	r25, r18
     ce4:	d1 f7       	brne	.-12     	; 0xcda <LCD_VoidSendStringxy+0x1b0>
	DIO_u8WritePinVal(LCD_u8Enable,DIO_u8LOW );
     ce6:	8a e1       	ldi	r24, 0x1A	; 26
     ce8:	60 e0       	ldi	r22, 0x00	; 0
     cea:	0e 94 29 01 	call	0x252	; 0x252 <DIO_u8WritePinVal>
     cee:	80 e0       	ldi	r24, 0x00	; 0
     cf0:	90 e0       	ldi	r25, 0x00	; 0
	Delay_ms_Max1s(1);
     cf2:	00 00       	nop
     cf4:	01 96       	adiw	r24, 0x01	; 1
     cf6:	21 e0       	ldi	r18, 0x01	; 1
     cf8:	84 3f       	cpi	r24, 0xF4	; 244
     cfa:	92 07       	cpc	r25, r18
     cfc:	d1 f7       	brne	.-12     	; 0xcf2 <LCD_VoidSendStringxy+0x1c8>
     cfe:	64 cf       	rjmp	.-312    	; 0xbc8 <LCD_VoidSendStringxy+0x9e>

00000d00 <LCD_VoidRow>:
}
/*********************************************************************************************/

void LCD_VoidRow(u8 LCD_u8no)//elsf elawl wla eltany
{
	if (LCD_u8no == 1)
     d00:	81 30       	cpi	r24, 0x01	; 1
     d02:	09 f4       	brne	.+2      	; 0xd06 <LCD_VoidRow+0x6>
     d04:	42 c0       	rjmp	.+132    	; 0xd8a <LCD_VoidRow+0x8a>
	{
		LCD_VoidCmd(0x80); // sf awl
	}
	if (LCD_u8no ==2)
     d06:	82 30       	cpi	r24, 0x02	; 2
     d08:	09 f0       	breq	.+2      	; 0xd0c <LCD_VoidRow+0xc>
     d0a:	08 95       	ret

/*****************************************************************/
void LCD_VoidCmd(u8 LCD_u8Command)
{
	//LCD_u8Port=LCD_u8Command;
	LCD_WaitLcd();
     d0c:	0e 94 eb 01 	call	0x3d6	; 0x3d6 <LCD_WaitLcd>
	#if (LCD_u8LcdMode == LCD_u8Bit8)
	DIO_u8WritePinVal(LCD_u8Reset,DIO_u8LOW );
     d10:	88 e1       	ldi	r24, 0x18	; 24
     d12:	60 e0       	ldi	r22, 0x00	; 0
     d14:	0e 94 29 01 	call	0x252	; 0x252 <DIO_u8WritePinVal>

	DIO_u8WritePinVal(LCD_u8D0,(LCD_u8Command&Lcd_u8Bit0 ));
     d18:	80 e1       	ldi	r24, 0x10	; 16
     d1a:	60 e0       	ldi	r22, 0x00	; 0
     d1c:	0e 94 29 01 	call	0x252	; 0x252 <DIO_u8WritePinVal>
	DIO_u8WritePinVal(LCD_u8D1,(LCD_u8Command&Lcd_u8Bit1 ));
     d20:	81 e1       	ldi	r24, 0x11	; 17
     d22:	60 e0       	ldi	r22, 0x00	; 0
     d24:	0e 94 29 01 	call	0x252	; 0x252 <DIO_u8WritePinVal>
	DIO_u8WritePinVal(LCD_u8D2,(LCD_u8Command&Lcd_u8Bit2 ));
     d28:	82 e1       	ldi	r24, 0x12	; 18
     d2a:	60 e0       	ldi	r22, 0x00	; 0
     d2c:	0e 94 29 01 	call	0x252	; 0x252 <DIO_u8WritePinVal>
	DIO_u8WritePinVal(LCD_u8D3,(LCD_u8Command&Lcd_u8Bit3 ));
     d30:	83 e1       	ldi	r24, 0x13	; 19
     d32:	60 e0       	ldi	r22, 0x00	; 0
     d34:	0e 94 29 01 	call	0x252	; 0x252 <DIO_u8WritePinVal>
	DIO_u8WritePinVal(LCD_u8D4,(LCD_u8Command&Lcd_u8Bit4 ));
     d38:	84 e1       	ldi	r24, 0x14	; 20
     d3a:	60 e0       	ldi	r22, 0x00	; 0
     d3c:	0e 94 29 01 	call	0x252	; 0x252 <DIO_u8WritePinVal>
	DIO_u8WritePinVal(LCD_u8D5,(LCD_u8Command&Lcd_u8Bit5 ));
     d40:	85 e1       	ldi	r24, 0x15	; 21
     d42:	60 e0       	ldi	r22, 0x00	; 0
     d44:	0e 94 29 01 	call	0x252	; 0x252 <DIO_u8WritePinVal>
	DIO_u8WritePinVal(LCD_u8D6,(LCD_u8Command&Lcd_u8Bit6 ));
     d48:	86 e1       	ldi	r24, 0x16	; 22
     d4a:	60 e4       	ldi	r22, 0x40	; 64
     d4c:	0e 94 29 01 	call	0x252	; 0x252 <DIO_u8WritePinVal>
	DIO_u8WritePinVal(LCD_u8D7,(LCD_u8Command&Lcd_u8Bit7 ));
     d50:	87 e1       	ldi	r24, 0x17	; 23
     d52:	60 e8       	ldi	r22, 0x80	; 128
     d54:	0e 94 29 01 	call	0x252	; 0x252 <DIO_u8WritePinVal>
	LCD_VoidCmd(0x01);
}
/*****************************************************************/
void LCD_EnableLcd(void)
{
	DIO_u8WritePinVal(LCD_u8Enable,DIO_u8HIGH );
     d58:	8a e1       	ldi	r24, 0x1A	; 26
     d5a:	61 e0       	ldi	r22, 0x01	; 1
     d5c:	0e 94 29 01 	call	0x252	; 0x252 <DIO_u8WritePinVal>
     d60:	80 e0       	ldi	r24, 0x00	; 0
     d62:	90 e0       	ldi	r25, 0x00	; 0
	Delay_ms_Max1s(1);
     d64:	00 00       	nop
     d66:	01 96       	adiw	r24, 0x01	; 1
     d68:	21 e0       	ldi	r18, 0x01	; 1
     d6a:	84 3f       	cpi	r24, 0xF4	; 244
     d6c:	92 07       	cpc	r25, r18
     d6e:	d1 f7       	brne	.-12     	; 0xd64 <LCD_VoidRow+0x64>
	DIO_u8WritePinVal(LCD_u8Enable,DIO_u8LOW );
     d70:	8a e1       	ldi	r24, 0x1A	; 26
     d72:	60 e0       	ldi	r22, 0x00	; 0
     d74:	0e 94 29 01 	call	0x252	; 0x252 <DIO_u8WritePinVal>
     d78:	80 e0       	ldi	r24, 0x00	; 0
     d7a:	90 e0       	ldi	r25, 0x00	; 0
	Delay_ms_Max1s(1);
     d7c:	00 00       	nop
     d7e:	01 96       	adiw	r24, 0x01	; 1
     d80:	21 e0       	ldi	r18, 0x01	; 1
     d82:	84 3f       	cpi	r24, 0xF4	; 244
     d84:	92 07       	cpc	r25, r18
     d86:	d1 f7       	brne	.-12     	; 0xd7c <LCD_VoidRow+0x7c>
     d88:	08 95       	ret

/*****************************************************************/
void LCD_VoidCmd(u8 LCD_u8Command)
{
	//LCD_u8Port=LCD_u8Command;
	LCD_WaitLcd();
     d8a:	0e 94 eb 01 	call	0x3d6	; 0x3d6 <LCD_WaitLcd>
	#if (LCD_u8LcdMode == LCD_u8Bit8)
	DIO_u8WritePinVal(LCD_u8Reset,DIO_u8LOW );
     d8e:	88 e1       	ldi	r24, 0x18	; 24
     d90:	60 e0       	ldi	r22, 0x00	; 0
     d92:	0e 94 29 01 	call	0x252	; 0x252 <DIO_u8WritePinVal>

	DIO_u8WritePinVal(LCD_u8D0,(LCD_u8Command&Lcd_u8Bit0 ));
     d96:	80 e1       	ldi	r24, 0x10	; 16
     d98:	60 e0       	ldi	r22, 0x00	; 0
     d9a:	0e 94 29 01 	call	0x252	; 0x252 <DIO_u8WritePinVal>
	DIO_u8WritePinVal(LCD_u8D1,(LCD_u8Command&Lcd_u8Bit1 ));
     d9e:	81 e1       	ldi	r24, 0x11	; 17
     da0:	60 e0       	ldi	r22, 0x00	; 0
     da2:	0e 94 29 01 	call	0x252	; 0x252 <DIO_u8WritePinVal>
	DIO_u8WritePinVal(LCD_u8D2,(LCD_u8Command&Lcd_u8Bit2 ));
     da6:	82 e1       	ldi	r24, 0x12	; 18
     da8:	60 e0       	ldi	r22, 0x00	; 0
     daa:	0e 94 29 01 	call	0x252	; 0x252 <DIO_u8WritePinVal>
	DIO_u8WritePinVal(LCD_u8D3,(LCD_u8Command&Lcd_u8Bit3 ));
     dae:	83 e1       	ldi	r24, 0x13	; 19
     db0:	60 e0       	ldi	r22, 0x00	; 0
     db2:	0e 94 29 01 	call	0x252	; 0x252 <DIO_u8WritePinVal>
	DIO_u8WritePinVal(LCD_u8D4,(LCD_u8Command&Lcd_u8Bit4 ));
     db6:	84 e1       	ldi	r24, 0x14	; 20
     db8:	60 e0       	ldi	r22, 0x00	; 0
     dba:	0e 94 29 01 	call	0x252	; 0x252 <DIO_u8WritePinVal>
	DIO_u8WritePinVal(LCD_u8D5,(LCD_u8Command&Lcd_u8Bit5 ));
     dbe:	85 e1       	ldi	r24, 0x15	; 21
     dc0:	60 e0       	ldi	r22, 0x00	; 0
     dc2:	0e 94 29 01 	call	0x252	; 0x252 <DIO_u8WritePinVal>
	DIO_u8WritePinVal(LCD_u8D6,(LCD_u8Command&Lcd_u8Bit6 ));
     dc6:	86 e1       	ldi	r24, 0x16	; 22
     dc8:	60 e0       	ldi	r22, 0x00	; 0
     dca:	0e 94 29 01 	call	0x252	; 0x252 <DIO_u8WritePinVal>
	DIO_u8WritePinVal(LCD_u8D7,(LCD_u8Command&Lcd_u8Bit7 ));
     dce:	87 e1       	ldi	r24, 0x17	; 23
     dd0:	60 e8       	ldi	r22, 0x80	; 128
     dd2:	0e 94 29 01 	call	0x252	; 0x252 <DIO_u8WritePinVal>
	LCD_VoidCmd(0x01);
}
/*****************************************************************/
void LCD_EnableLcd(void)
{
	DIO_u8WritePinVal(LCD_u8Enable,DIO_u8HIGH );
     dd6:	8a e1       	ldi	r24, 0x1A	; 26
     dd8:	61 e0       	ldi	r22, 0x01	; 1
     dda:	0e 94 29 01 	call	0x252	; 0x252 <DIO_u8WritePinVal>
     dde:	80 e0       	ldi	r24, 0x00	; 0
     de0:	90 e0       	ldi	r25, 0x00	; 0
	Delay_ms_Max1s(1);
     de2:	00 00       	nop
     de4:	01 96       	adiw	r24, 0x01	; 1
     de6:	21 e0       	ldi	r18, 0x01	; 1
     de8:	84 3f       	cpi	r24, 0xF4	; 244
     dea:	92 07       	cpc	r25, r18
     dec:	d1 f7       	brne	.-12     	; 0xde2 <LCD_VoidRow+0xe2>
	DIO_u8WritePinVal(LCD_u8Enable,DIO_u8LOW );
     dee:	8a e1       	ldi	r24, 0x1A	; 26
     df0:	60 e0       	ldi	r22, 0x00	; 0
     df2:	0e 94 29 01 	call	0x252	; 0x252 <DIO_u8WritePinVal>
     df6:	80 e0       	ldi	r24, 0x00	; 0
     df8:	90 e0       	ldi	r25, 0x00	; 0
	Delay_ms_Max1s(1);
     dfa:	00 00       	nop
     dfc:	01 96       	adiw	r24, 0x01	; 1
     dfe:	21 e0       	ldi	r18, 0x01	; 1
     e00:	84 3f       	cpi	r24, 0xF4	; 244
     e02:	92 07       	cpc	r25, r18
     e04:	d1 f7       	brne	.-12     	; 0xdfa <LCD_VoidRow+0xfa>
     e06:	08 95       	ret

00000e08 <LCD_VoidRowString>:
	}
}
/*********************************************************************************************/

void LCD_VoidRowString (u8 LCD_u8row,u8 *LCD_u8String) //(rkm el sf,"el2sm ely 3ais tktbo")
{
     e08:	1f 93       	push	r17
     e0a:	cf 93       	push	r28
     e0c:	df 93       	push	r29
     e0e:	eb 01       	movw	r28, r22
}
/*********************************************************************************************/

void LCD_VoidRow(u8 LCD_u8no)//elsf elawl wla eltany
{
	if (LCD_u8no == 1)
     e10:	81 30       	cpi	r24, 0x01	; 1
     e12:	09 f4       	brne	.+2      	; 0xe16 <LCD_VoidRowString+0xe>
     e14:	56 c0       	rjmp	.+172    	; 0xec2 <LCD_VoidRowString+0xba>
	{
		LCD_VoidCmd(0x80); // sf awl
	}
	if (LCD_u8no ==2)
     e16:	82 30       	cpi	r24, 0x02	; 2
     e18:	09 f4       	brne	.+2      	; 0xe1c <LCD_VoidRowString+0x14>
     e1a:	92 c0       	rjmp	.+292    	; 0xf40 <LCD_VoidRowString+0x138>

void LCD_VoidRowString (u8 LCD_u8row,u8 *LCD_u8String) //(rkm el sf,"el2sm ely 3ais tktbo")
{
	LCD_VoidRow(LCD_u8row);
	///*
	 while (*LCD_u8String)
     e1c:	18 81       	ld	r17, Y
     e1e:	11 23       	and	r17, r17
     e20:	09 f4       	brne	.+2      	; 0xe24 <LCD_VoidRowString+0x1c>
     e22:	4b c0       	rjmp	.+150    	; 0xeba <LCD_VoidRowString+0xb2>
}
*/
/*****************************************************************/
void LCD_VoidData(u8 LCD_u8Data)
{
	LCD_WaitLcd();
     e24:	0e 94 eb 01 	call	0x3d6	; 0x3d6 <LCD_WaitLcd>
	#if (LCD_u8LcdMode == LCD_u8Bit8)

	DIO_u8WritePinVal(LCD_u8Reset,DIO_u8HIGH );
     e28:	88 e1       	ldi	r24, 0x18	; 24
     e2a:	61 e0       	ldi	r22, 0x01	; 1
     e2c:	0e 94 29 01 	call	0x252	; 0x252 <DIO_u8WritePinVal>

	DIO_u8WritePinVal(LCD_u8D0,(LCD_u8Data&Lcd_u8Bit0 )  );
     e30:	61 2f       	mov	r22, r17
     e32:	61 70       	andi	r22, 0x01	; 1
     e34:	80 e1       	ldi	r24, 0x10	; 16
     e36:	0e 94 29 01 	call	0x252	; 0x252 <DIO_u8WritePinVal>
	DIO_u8WritePinVal(LCD_u8D1,(LCD_u8Data&Lcd_u8Bit1 )  );
     e3a:	61 2f       	mov	r22, r17
     e3c:	62 70       	andi	r22, 0x02	; 2
     e3e:	81 e1       	ldi	r24, 0x11	; 17
     e40:	0e 94 29 01 	call	0x252	; 0x252 <DIO_u8WritePinVal>
	DIO_u8WritePinVal(LCD_u8D2,(LCD_u8Data&Lcd_u8Bit2 )  );
     e44:	61 2f       	mov	r22, r17
     e46:	64 70       	andi	r22, 0x04	; 4
     e48:	82 e1       	ldi	r24, 0x12	; 18
     e4a:	0e 94 29 01 	call	0x252	; 0x252 <DIO_u8WritePinVal>
	DIO_u8WritePinVal(LCD_u8D3,(LCD_u8Data&Lcd_u8Bit3 )  );
     e4e:	61 2f       	mov	r22, r17
     e50:	68 70       	andi	r22, 0x08	; 8
     e52:	83 e1       	ldi	r24, 0x13	; 19
     e54:	0e 94 29 01 	call	0x252	; 0x252 <DIO_u8WritePinVal>
	DIO_u8WritePinVal(LCD_u8D4,(LCD_u8Data&Lcd_u8Bit4 )  );
     e58:	61 2f       	mov	r22, r17
     e5a:	60 71       	andi	r22, 0x10	; 16
     e5c:	84 e1       	ldi	r24, 0x14	; 20
     e5e:	0e 94 29 01 	call	0x252	; 0x252 <DIO_u8WritePinVal>
	DIO_u8WritePinVal(LCD_u8D5,(LCD_u8Data&Lcd_u8Bit5 )  );
     e62:	61 2f       	mov	r22, r17
     e64:	60 72       	andi	r22, 0x20	; 32
     e66:	85 e1       	ldi	r24, 0x15	; 21
     e68:	0e 94 29 01 	call	0x252	; 0x252 <DIO_u8WritePinVal>
	DIO_u8WritePinVal(LCD_u8D6,(LCD_u8Data&Lcd_u8Bit6 )  );
     e6c:	61 2f       	mov	r22, r17
     e6e:	60 74       	andi	r22, 0x40	; 64
     e70:	86 e1       	ldi	r24, 0x16	; 22
     e72:	0e 94 29 01 	call	0x252	; 0x252 <DIO_u8WritePinVal>
	DIO_u8WritePinVal(LCD_u8D7,(LCD_u8Data&Lcd_u8Bit7 )  );
     e76:	10 78       	andi	r17, 0x80	; 128
     e78:	87 e1       	ldi	r24, 0x17	; 23
     e7a:	61 2f       	mov	r22, r17
     e7c:	0e 94 29 01 	call	0x252	; 0x252 <DIO_u8WritePinVal>
	LCD_VoidCmd(0x01);
}
/*****************************************************************/
void LCD_EnableLcd(void)
{
	DIO_u8WritePinVal(LCD_u8Enable,DIO_u8HIGH );
     e80:	8a e1       	ldi	r24, 0x1A	; 26
     e82:	61 e0       	ldi	r22, 0x01	; 1
     e84:	0e 94 29 01 	call	0x252	; 0x252 <DIO_u8WritePinVal>
     e88:	80 e0       	ldi	r24, 0x00	; 0
     e8a:	90 e0       	ldi	r25, 0x00	; 0
	Delay_ms_Max1s(1);
     e8c:	00 00       	nop
     e8e:	01 96       	adiw	r24, 0x01	; 1
     e90:	21 e0       	ldi	r18, 0x01	; 1
     e92:	84 3f       	cpi	r24, 0xF4	; 244
     e94:	92 07       	cpc	r25, r18
     e96:	d1 f7       	brne	.-12     	; 0xe8c <LCD_VoidRowString+0x84>
	DIO_u8WritePinVal(LCD_u8Enable,DIO_u8LOW );
     e98:	8a e1       	ldi	r24, 0x1A	; 26
     e9a:	60 e0       	ldi	r22, 0x00	; 0
     e9c:	0e 94 29 01 	call	0x252	; 0x252 <DIO_u8WritePinVal>
     ea0:	80 e0       	ldi	r24, 0x00	; 0
     ea2:	90 e0       	ldi	r25, 0x00	; 0
	Delay_ms_Max1s(1);
     ea4:	00 00       	nop
     ea6:	01 96       	adiw	r24, 0x01	; 1
     ea8:	21 e0       	ldi	r18, 0x01	; 1
     eaa:	84 3f       	cpi	r24, 0xF4	; 244
     eac:	92 07       	cpc	r25, r18
     eae:	d1 f7       	brne	.-12     	; 0xea4 <LCD_VoidRowString+0x9c>
{
	LCD_VoidRow(LCD_u8row);
	///*
	 while (*LCD_u8String)
	{
		LCD_VoidData(*LCD_u8String++);
     eb0:	21 96       	adiw	r28, 0x01	; 1

void LCD_VoidRowString (u8 LCD_u8row,u8 *LCD_u8String) //(rkm el sf,"el2sm ely 3ais tktbo")
{
	LCD_VoidRow(LCD_u8row);
	///*
	 while (*LCD_u8String)
     eb2:	18 81       	ld	r17, Y
     eb4:	11 23       	and	r17, r17
     eb6:	09 f0       	breq	.+2      	; 0xeba <LCD_VoidRowString+0xb2>
     eb8:	b5 cf       	rjmp	.-150    	; 0xe24 <LCD_VoidRowString+0x1c>
	{
		LCD_VoidData(*LCD_u8String++);
	}
	//*/
	//LCD_VoidString(LCD_u8String);
}
     eba:	df 91       	pop	r29
     ebc:	cf 91       	pop	r28
     ebe:	1f 91       	pop	r17
     ec0:	08 95       	ret

/*****************************************************************/
void LCD_VoidCmd(u8 LCD_u8Command)
{
	//LCD_u8Port=LCD_u8Command;
	LCD_WaitLcd();
     ec2:	0e 94 eb 01 	call	0x3d6	; 0x3d6 <LCD_WaitLcd>
	#if (LCD_u8LcdMode == LCD_u8Bit8)
	DIO_u8WritePinVal(LCD_u8Reset,DIO_u8LOW );
     ec6:	88 e1       	ldi	r24, 0x18	; 24
     ec8:	60 e0       	ldi	r22, 0x00	; 0
     eca:	0e 94 29 01 	call	0x252	; 0x252 <DIO_u8WritePinVal>

	DIO_u8WritePinVal(LCD_u8D0,(LCD_u8Command&Lcd_u8Bit0 ));
     ece:	80 e1       	ldi	r24, 0x10	; 16
     ed0:	60 e0       	ldi	r22, 0x00	; 0
     ed2:	0e 94 29 01 	call	0x252	; 0x252 <DIO_u8WritePinVal>
	DIO_u8WritePinVal(LCD_u8D1,(LCD_u8Command&Lcd_u8Bit1 ));
     ed6:	81 e1       	ldi	r24, 0x11	; 17
     ed8:	60 e0       	ldi	r22, 0x00	; 0
     eda:	0e 94 29 01 	call	0x252	; 0x252 <DIO_u8WritePinVal>
	DIO_u8WritePinVal(LCD_u8D2,(LCD_u8Command&Lcd_u8Bit2 ));
     ede:	82 e1       	ldi	r24, 0x12	; 18
     ee0:	60 e0       	ldi	r22, 0x00	; 0
     ee2:	0e 94 29 01 	call	0x252	; 0x252 <DIO_u8WritePinVal>
	DIO_u8WritePinVal(LCD_u8D3,(LCD_u8Command&Lcd_u8Bit3 ));
     ee6:	83 e1       	ldi	r24, 0x13	; 19
     ee8:	60 e0       	ldi	r22, 0x00	; 0
     eea:	0e 94 29 01 	call	0x252	; 0x252 <DIO_u8WritePinVal>
	DIO_u8WritePinVal(LCD_u8D4,(LCD_u8Command&Lcd_u8Bit4 ));
     eee:	84 e1       	ldi	r24, 0x14	; 20
     ef0:	60 e0       	ldi	r22, 0x00	; 0
     ef2:	0e 94 29 01 	call	0x252	; 0x252 <DIO_u8WritePinVal>
	DIO_u8WritePinVal(LCD_u8D5,(LCD_u8Command&Lcd_u8Bit5 ));
     ef6:	85 e1       	ldi	r24, 0x15	; 21
     ef8:	60 e0       	ldi	r22, 0x00	; 0
     efa:	0e 94 29 01 	call	0x252	; 0x252 <DIO_u8WritePinVal>
	DIO_u8WritePinVal(LCD_u8D6,(LCD_u8Command&Lcd_u8Bit6 ));
     efe:	86 e1       	ldi	r24, 0x16	; 22
     f00:	60 e0       	ldi	r22, 0x00	; 0
     f02:	0e 94 29 01 	call	0x252	; 0x252 <DIO_u8WritePinVal>
	DIO_u8WritePinVal(LCD_u8D7,(LCD_u8Command&Lcd_u8Bit7 ));
     f06:	87 e1       	ldi	r24, 0x17	; 23
     f08:	60 e8       	ldi	r22, 0x80	; 128
     f0a:	0e 94 29 01 	call	0x252	; 0x252 <DIO_u8WritePinVal>
	LCD_VoidCmd(0x01);
}
/*****************************************************************/
void LCD_EnableLcd(void)
{
	DIO_u8WritePinVal(LCD_u8Enable,DIO_u8HIGH );
     f0e:	8a e1       	ldi	r24, 0x1A	; 26
     f10:	61 e0       	ldi	r22, 0x01	; 1
     f12:	0e 94 29 01 	call	0x252	; 0x252 <DIO_u8WritePinVal>
     f16:	80 e0       	ldi	r24, 0x00	; 0
     f18:	90 e0       	ldi	r25, 0x00	; 0
	Delay_ms_Max1s(1);
     f1a:	00 00       	nop
     f1c:	01 96       	adiw	r24, 0x01	; 1
     f1e:	21 e0       	ldi	r18, 0x01	; 1
     f20:	84 3f       	cpi	r24, 0xF4	; 244
     f22:	92 07       	cpc	r25, r18
     f24:	d1 f7       	brne	.-12     	; 0xf1a <LCD_VoidRowString+0x112>
	DIO_u8WritePinVal(LCD_u8Enable,DIO_u8LOW );
     f26:	8a e1       	ldi	r24, 0x1A	; 26
     f28:	60 e0       	ldi	r22, 0x00	; 0
     f2a:	0e 94 29 01 	call	0x252	; 0x252 <DIO_u8WritePinVal>
     f2e:	80 e0       	ldi	r24, 0x00	; 0
     f30:	90 e0       	ldi	r25, 0x00	; 0
	Delay_ms_Max1s(1);
     f32:	00 00       	nop
     f34:	01 96       	adiw	r24, 0x01	; 1
     f36:	21 e0       	ldi	r18, 0x01	; 1
     f38:	84 3f       	cpi	r24, 0xF4	; 244
     f3a:	92 07       	cpc	r25, r18
     f3c:	d1 f7       	brne	.-12     	; 0xf32 <LCD_VoidRowString+0x12a>
     f3e:	6e cf       	rjmp	.-292    	; 0xe1c <LCD_VoidRowString+0x14>

/*****************************************************************/
void LCD_VoidCmd(u8 LCD_u8Command)
{
	//LCD_u8Port=LCD_u8Command;
	LCD_WaitLcd();
     f40:	0e 94 eb 01 	call	0x3d6	; 0x3d6 <LCD_WaitLcd>
	#if (LCD_u8LcdMode == LCD_u8Bit8)
	DIO_u8WritePinVal(LCD_u8Reset,DIO_u8LOW );
     f44:	88 e1       	ldi	r24, 0x18	; 24
     f46:	60 e0       	ldi	r22, 0x00	; 0
     f48:	0e 94 29 01 	call	0x252	; 0x252 <DIO_u8WritePinVal>

	DIO_u8WritePinVal(LCD_u8D0,(LCD_u8Command&Lcd_u8Bit0 ));
     f4c:	80 e1       	ldi	r24, 0x10	; 16
     f4e:	60 e0       	ldi	r22, 0x00	; 0
     f50:	0e 94 29 01 	call	0x252	; 0x252 <DIO_u8WritePinVal>
	DIO_u8WritePinVal(LCD_u8D1,(LCD_u8Command&Lcd_u8Bit1 ));
     f54:	81 e1       	ldi	r24, 0x11	; 17
     f56:	60 e0       	ldi	r22, 0x00	; 0
     f58:	0e 94 29 01 	call	0x252	; 0x252 <DIO_u8WritePinVal>
	DIO_u8WritePinVal(LCD_u8D2,(LCD_u8Command&Lcd_u8Bit2 ));
     f5c:	82 e1       	ldi	r24, 0x12	; 18
     f5e:	60 e0       	ldi	r22, 0x00	; 0
     f60:	0e 94 29 01 	call	0x252	; 0x252 <DIO_u8WritePinVal>
	DIO_u8WritePinVal(LCD_u8D3,(LCD_u8Command&Lcd_u8Bit3 ));
     f64:	83 e1       	ldi	r24, 0x13	; 19
     f66:	60 e0       	ldi	r22, 0x00	; 0
     f68:	0e 94 29 01 	call	0x252	; 0x252 <DIO_u8WritePinVal>
	DIO_u8WritePinVal(LCD_u8D4,(LCD_u8Command&Lcd_u8Bit4 ));
     f6c:	84 e1       	ldi	r24, 0x14	; 20
     f6e:	60 e0       	ldi	r22, 0x00	; 0
     f70:	0e 94 29 01 	call	0x252	; 0x252 <DIO_u8WritePinVal>
	DIO_u8WritePinVal(LCD_u8D5,(LCD_u8Command&Lcd_u8Bit5 ));
     f74:	85 e1       	ldi	r24, 0x15	; 21
     f76:	60 e0       	ldi	r22, 0x00	; 0
     f78:	0e 94 29 01 	call	0x252	; 0x252 <DIO_u8WritePinVal>
	DIO_u8WritePinVal(LCD_u8D6,(LCD_u8Command&Lcd_u8Bit6 ));
     f7c:	86 e1       	ldi	r24, 0x16	; 22
     f7e:	60 e4       	ldi	r22, 0x40	; 64
     f80:	0e 94 29 01 	call	0x252	; 0x252 <DIO_u8WritePinVal>
	DIO_u8WritePinVal(LCD_u8D7,(LCD_u8Command&Lcd_u8Bit7 ));
     f84:	87 e1       	ldi	r24, 0x17	; 23
     f86:	60 e8       	ldi	r22, 0x80	; 128
     f88:	0e 94 29 01 	call	0x252	; 0x252 <DIO_u8WritePinVal>
	LCD_VoidCmd(0x01);
}
/*****************************************************************/
void LCD_EnableLcd(void)
{
	DIO_u8WritePinVal(LCD_u8Enable,DIO_u8HIGH );
     f8c:	8a e1       	ldi	r24, 0x1A	; 26
     f8e:	61 e0       	ldi	r22, 0x01	; 1
     f90:	0e 94 29 01 	call	0x252	; 0x252 <DIO_u8WritePinVal>
     f94:	80 e0       	ldi	r24, 0x00	; 0
     f96:	90 e0       	ldi	r25, 0x00	; 0
	Delay_ms_Max1s(1);
     f98:	00 00       	nop
     f9a:	01 96       	adiw	r24, 0x01	; 1
     f9c:	21 e0       	ldi	r18, 0x01	; 1
     f9e:	84 3f       	cpi	r24, 0xF4	; 244
     fa0:	92 07       	cpc	r25, r18
     fa2:	d1 f7       	brne	.-12     	; 0xf98 <LCD_VoidRowString+0x190>
	DIO_u8WritePinVal(LCD_u8Enable,DIO_u8LOW );
     fa4:	8a e1       	ldi	r24, 0x1A	; 26
     fa6:	60 e0       	ldi	r22, 0x00	; 0
     fa8:	0e 94 29 01 	call	0x252	; 0x252 <DIO_u8WritePinVal>
     fac:	80 e0       	ldi	r24, 0x00	; 0
     fae:	90 e0       	ldi	r25, 0x00	; 0
	Delay_ms_Max1s(1);
     fb0:	00 00       	nop
     fb2:	01 96       	adiw	r24, 0x01	; 1
     fb4:	21 e0       	ldi	r18, 0x01	; 1
     fb6:	84 3f       	cpi	r24, 0xF4	; 244
     fb8:	92 07       	cpc	r25, r18
     fba:	d1 f7       	brne	.-12     	; 0xfb0 <LCD_VoidRowString+0x1a8>
     fbc:	2f cf       	rjmp	.-418    	; 0xe1c <LCD_VoidRowString+0x14>

00000fbe <TACTILE_voidInit>:

/*Comment!: Initialization function */
extern void TACTILE_voidInit(void)
{

}
     fbe:	08 95       	ret

00000fc0 <TACTILE_u8GetState>:
													,TACTILE_u8Switch9Type ,TACTILE_u8Switch10Type,TACTILE_u8Switch11Type,TACTILE_u8Switch12Type
													,TACTILE_u8Switch13Type,TACTILE_u8Switch14Type,TACTILE_u8Switch15Type,TACTILE_u8Switch16Type};

/*Comment!: Get Tactile State */
extern u8 TACTILE_u8GetState(u8 Copy_u8SwitchNumber, u8* Copy_u8PtrToVal)
{
     fc0:	ef 92       	push	r14
     fc2:	ff 92       	push	r15
     fc4:	0f 93       	push	r16
     fc6:	1f 93       	push	r17
     fc8:	df 93       	push	r29
     fca:	cf 93       	push	r28
     fcc:	0f 92       	push	r0
     fce:	cd b7       	in	r28, 0x3d	; 61
     fd0:	de b7       	in	r29, 0x3e	; 62
     fd2:	7b 01       	movw	r14, r22
//	u8 TACTILE_u8=TACTILE_u8TactileType[Copy_u8SwitchNumber];
	static u8 TACTILE_u8State[TACTILE_u8SWITCHNUM]		=	{TACTILE_u8RELEASED};
	static u8 TACTILE_u8CounterUp[TACTILE_u8SWITCHNUM]	= 	{u8ZERO};
	static u8 TACTILE_u8CounterDown[TACTILE_u8SWITCHNUM]= 	{u8ZERO};
	static u8 TACTILE_u8TactileVal[TACTILE_u8SWITCHNUM]= 	{TACTILE_u8RELEASED};
	if(Copy_u8SwitchNumber > TACTILE_u8MAXNUM)
     fd4:	81 31       	cpi	r24, 0x11	; 17
     fd6:	48 f0       	brcs	.+18     	; 0xfea <TACTILE_u8GetState+0x2a>
     fd8:	80 e0       	ldi	r24, 0x00	; 0
			break;
		}
	}

	return Local_u8Error;
}
     fda:	0f 90       	pop	r0
     fdc:	cf 91       	pop	r28
     fde:	df 91       	pop	r29
     fe0:	1f 91       	pop	r17
     fe2:	0f 91       	pop	r16
     fe4:	ff 90       	pop	r15
     fe6:	ef 90       	pop	r14
     fe8:	08 95       	ret
	if(Copy_u8SwitchNumber > TACTILE_u8MAXNUM)
	{
		Local_u8Error=ERROR;
	}
	else{
		DIO_u8ReadPinVal(TACTILE_u8TactilePins[Copy_u8SwitchNumber],&Local_u8TactileVal);
     fea:	08 2f       	mov	r16, r24
     fec:	10 e0       	ldi	r17, 0x00	; 0
     fee:	f8 01       	movw	r30, r16
     ff0:	e9 57       	subi	r30, 0x79	; 121
     ff2:	ff 4f       	sbci	r31, 0xFF	; 255
     ff4:	80 81       	ld	r24, Z
     ff6:	be 01       	movw	r22, r28
     ff8:	6f 5f       	subi	r22, 0xFF	; 255
     ffa:	7f 4f       	sbci	r23, 0xFF	; 255
     ffc:	0e 94 00 01 	call	0x200	; 0x200 <DIO_u8ReadPinVal>
		switch(TACTILE_u8State[Copy_u8SwitchNumber])
    1000:	d8 01       	movw	r26, r16
    1002:	a5 54       	subi	r26, 0x45	; 69
    1004:	bf 4f       	sbci	r27, 0xFF	; 255
    1006:	2c 91       	ld	r18, X
    1008:	21 30       	cpi	r18, 0x01	; 1
    100a:	61 f1       	breq	.+88     	; 0x1064 <TACTILE_u8GetState+0xa4>
    100c:	21 30       	cpi	r18, 0x01	; 1
    100e:	80 f4       	brcc	.+32     	; 0x1030 <TACTILE_u8GetState+0x70>
		{
		case TACTILE_u8RELEASED:
			if(Local_u8TactileVal==TACTILE_u8TactileType[Copy_u8SwitchNumber])
    1010:	f8 01       	movw	r30, r16
    1012:	e9 56       	subi	r30, 0x69	; 105
    1014:	ff 4f       	sbci	r31, 0xFF	; 255
    1016:	90 81       	ld	r25, Z
    1018:	89 81       	ldd	r24, Y+1	; 0x01
    101a:	98 17       	cp	r25, r24
    101c:	c1 f1       	breq	.+112    	; 0x108e <TACTILE_u8GetState+0xce>
				TACTILE_u8State[Copy_u8SwitchNumber]=TACTILE_u8BOUNCING;
				TACTILE_u8CounterDown[Copy_u8SwitchNumber]=u8ZERO;
            }
			else if (Local_u8TactileVal!=TACTILE_u8TactileType[Copy_u8SwitchNumber])
            {
				TACTILE_u8TactileVal[Copy_u8SwitchNumber]=TACTILE_u8RELEASED;
    101e:	f8 01       	movw	r30, r16
    1020:	ee 54       	subi	r30, 0x4E	; 78
    1022:	ff 4f       	sbci	r31, 0xFF	; 255
    1024:	10 82       	st	Z, r1
			}
			else{
			}
			*Copy_u8PtrToVal=TACTILE_u8TactileVal[Copy_u8SwitchNumber];
    1026:	80 81       	ld	r24, Z
    1028:	f7 01       	movw	r30, r14
    102a:	80 83       	st	Z, r24
    102c:	81 e0       	ldi	r24, 0x01	; 1
    102e:	d5 cf       	rjmp	.-86     	; 0xfda <TACTILE_u8GetState+0x1a>
	{
		Local_u8Error=ERROR;
	}
	else{
		DIO_u8ReadPinVal(TACTILE_u8TactilePins[Copy_u8SwitchNumber],&Local_u8TactileVal);
		switch(TACTILE_u8State[Copy_u8SwitchNumber])
    1030:	22 30       	cpi	r18, 0x02	; 2
    1032:	11 f0       	breq	.+4      	; 0x1038 <TACTILE_u8GetState+0x78>
            {
                TACTILE_u8TactileVal[Copy_u8SwitchNumber]=TACTILE_u8PRESSED;
			}
			else{
			}
			*Copy_u8PtrToVal=TACTILE_u8TactileVal[Copy_u8SwitchNumber];
    1034:	81 e0       	ldi	r24, 0x01	; 1
    1036:	d1 cf       	rjmp	.-94     	; 0xfda <TACTILE_u8GetState+0x1a>
			else{
			}
			*Copy_u8PtrToVal=TACTILE_u8TactileVal[Copy_u8SwitchNumber];
			break;
		case TACTILE_u8BOUNCING:
			if(Local_u8TactileVal==TACTILE_u8TactileType[Copy_u8SwitchNumber])
    1038:	f8 01       	movw	r30, r16
    103a:	e9 56       	subi	r30, 0x69	; 105
    103c:	ff 4f       	sbci	r31, 0xFF	; 255
    103e:	90 81       	ld	r25, Z
    1040:	89 81       	ldd	r24, Y+1	; 0x01
    1042:	98 17       	cp	r25, r24
    1044:	a1 f1       	breq	.+104    	; 0x10ae <TACTILE_u8GetState+0xee>
				TACTILE_u8CounterUp[Copy_u8SwitchNumber]++;
				TACTILE_u8CounterDown[Copy_u8SwitchNumber]=u8ZERO;
			}
			else if (Local_u8TactileVal!=TACTILE_u8TactileType[Copy_u8SwitchNumber])
            {
                TACTILE_u8CounterDown[Copy_u8SwitchNumber]++;
    1046:	f8 01       	movw	r30, r16
    1048:	eb 54       	subi	r30, 0x4B	; 75
    104a:	ff 4f       	sbci	r31, 0xFF	; 255
    104c:	80 81       	ld	r24, Z
    104e:	8f 5f       	subi	r24, 0xFF	; 255
    1050:	80 83       	st	Z, r24
				TACTILE_u8CounterUp[Copy_u8SwitchNumber]=u8ZERO;
    1052:	08 54       	subi	r16, 0x48	; 72
    1054:	1f 4f       	sbci	r17, 0xFF	; 255
    1056:	f8 01       	movw	r30, r16
    1058:	10 82       	st	Z, r1
			{
				TACTILE_u8State[Copy_u8SwitchNumber]=TACTILE_u8PRESSED;
			}
			else{
			}
			if(TACTILE_u8CounterDown[Copy_u8SwitchNumber]>=TACTILE_u8MAXCOUNT)
    105a:	8a 30       	cpi	r24, 0x0A	; 10
    105c:	58 f3       	brcs	.-42     	; 0x1034 <TACTILE_u8GetState+0x74>
			{
				TACTILE_u8State[Copy_u8SwitchNumber]=TACTILE_u8RELEASED;
    105e:	1c 92       	st	X, r1
    1060:	81 e0       	ldi	r24, 0x01	; 1
    1062:	bb cf       	rjmp	.-138    	; 0xfda <TACTILE_u8GetState+0x1a>
			}
			else{
			}
			break;
		case TACTILE_u8PRESSED:
			if (Local_u8TactileVal!=TACTILE_u8TactileType[Copy_u8SwitchNumber])
    1064:	f8 01       	movw	r30, r16
    1066:	e9 56       	subi	r30, 0x69	; 105
    1068:	ff 4f       	sbci	r31, 0xFF	; 255
    106a:	90 81       	ld	r25, Z
    106c:	89 81       	ldd	r24, Y+1	; 0x01
    106e:	98 17       	cp	r25, r24
    1070:	c1 f0       	breq	.+48     	; 0x10a2 <TACTILE_u8GetState+0xe2>
            {
				TACTILE_u8CounterUp[Copy_u8SwitchNumber]=u8ZERO;
    1072:	f8 01       	movw	r30, r16
    1074:	e8 54       	subi	r30, 0x48	; 72
    1076:	ff 4f       	sbci	r31, 0xFF	; 255
    1078:	10 82       	st	Z, r1
				TACTILE_u8State[Copy_u8SwitchNumber]=TACTILE_u8BOUNCING;
    107a:	82 e0       	ldi	r24, 0x02	; 2
    107c:	8c 93       	st	X, r24
    107e:	f8 01       	movw	r30, r16
    1080:	ee 54       	subi	r30, 0x4E	; 78
    1082:	ff 4f       	sbci	r31, 0xFF	; 255
    1084:	80 81       	ld	r24, Z
            {
                TACTILE_u8TactileVal[Copy_u8SwitchNumber]=TACTILE_u8PRESSED;
			}
			else{
			}
			*Copy_u8PtrToVal=TACTILE_u8TactileVal[Copy_u8SwitchNumber];
    1086:	f7 01       	movw	r30, r14
    1088:	80 83       	st	Z, r24
    108a:	81 e0       	ldi	r24, 0x01	; 1
    108c:	a6 cf       	rjmp	.-180    	; 0xfda <TACTILE_u8GetState+0x1a>
		switch(TACTILE_u8State[Copy_u8SwitchNumber])
		{
		case TACTILE_u8RELEASED:
			if(Local_u8TactileVal==TACTILE_u8TactileType[Copy_u8SwitchNumber])
			{
				TACTILE_u8State[Copy_u8SwitchNumber]=TACTILE_u8BOUNCING;
    108e:	82 e0       	ldi	r24, 0x02	; 2
    1090:	8c 93       	st	X, r24
				TACTILE_u8CounterDown[Copy_u8SwitchNumber]=u8ZERO;
    1092:	f8 01       	movw	r30, r16
    1094:	eb 54       	subi	r30, 0x4B	; 75
    1096:	ff 4f       	sbci	r31, 0xFF	; 255
    1098:	10 82       	st	Z, r1
    109a:	f8 01       	movw	r30, r16
    109c:	ee 54       	subi	r30, 0x4E	; 78
    109e:	ff 4f       	sbci	r31, 0xFF	; 255
    10a0:	c2 cf       	rjmp	.-124    	; 0x1026 <TACTILE_u8GetState+0x66>
				TACTILE_u8CounterUp[Copy_u8SwitchNumber]=u8ZERO;
				TACTILE_u8State[Copy_u8SwitchNumber]=TACTILE_u8BOUNCING;
			}
			else if (Local_u8TactileVal==TACTILE_u8TactileType[Copy_u8SwitchNumber])
            {
                TACTILE_u8TactileVal[Copy_u8SwitchNumber]=TACTILE_u8PRESSED;
    10a2:	f8 01       	movw	r30, r16
    10a4:	ee 54       	subi	r30, 0x4E	; 78
    10a6:	ff 4f       	sbci	r31, 0xFF	; 255
    10a8:	20 83       	st	Z, r18
    10aa:	82 2f       	mov	r24, r18
    10ac:	ec cf       	rjmp	.-40     	; 0x1086 <TACTILE_u8GetState+0xc6>
			*Copy_u8PtrToVal=TACTILE_u8TactileVal[Copy_u8SwitchNumber];
			break;
		case TACTILE_u8BOUNCING:
			if(Local_u8TactileVal==TACTILE_u8TactileType[Copy_u8SwitchNumber])
			{
				TACTILE_u8CounterUp[Copy_u8SwitchNumber]++;
    10ae:	f8 01       	movw	r30, r16
    10b0:	e8 54       	subi	r30, 0x48	; 72
    10b2:	ff 4f       	sbci	r31, 0xFF	; 255
    10b4:	80 81       	ld	r24, Z
    10b6:	8f 5f       	subi	r24, 0xFF	; 255
    10b8:	80 83       	st	Z, r24
				TACTILE_u8CounterDown[Copy_u8SwitchNumber]=u8ZERO;
    10ba:	0b 54       	subi	r16, 0x4B	; 75
    10bc:	1f 4f       	sbci	r17, 0xFF	; 255
    10be:	f8 01       	movw	r30, r16
    10c0:	10 82       	st	Z, r1
                TACTILE_u8CounterDown[Copy_u8SwitchNumber]++;
				TACTILE_u8CounterUp[Copy_u8SwitchNumber]=u8ZERO;
			}
			else{
			}
			if(TACTILE_u8CounterUp[Copy_u8SwitchNumber]>=TACTILE_u8MAXCOUNT)
    10c2:	8a 30       	cpi	r24, 0x0A	; 10
    10c4:	08 f4       	brcc	.+2      	; 0x10c8 <TACTILE_u8GetState+0x108>
    10c6:	b6 cf       	rjmp	.-148    	; 0x1034 <TACTILE_u8GetState+0x74>
			{
				TACTILE_u8State[Copy_u8SwitchNumber]=TACTILE_u8PRESSED;
    10c8:	81 e0       	ldi	r24, 0x01	; 1
    10ca:	8c 93       	st	X, r24
    10cc:	86 cf       	rjmp	.-244    	; 0xfda <TACTILE_u8GetState+0x1a>

000010ce <Local_voidDisplay>:
		break;
	}
}

void Local_voidDisplay(u8 Copy_u8Temp,u8 Copy_u8Speed)
{
    10ce:	0f 93       	push	r16
    10d0:	1f 93       	push	r17
    10d2:	18 2f       	mov	r17, r24
    10d4:	06 2f       	mov	r16, r22
	LCD_VoidGotoxy(8,1);
    10d6:	88 e0       	ldi	r24, 0x08	; 8
    10d8:	61 e0       	ldi	r22, 0x01	; 1
    10da:	0e 94 fd 04 	call	0x9fa	; 0x9fa <LCD_VoidGotoxy>
	LCD_VoidData((u8)(Copy_u8Temp/10)+48);
    10de:	81 2f       	mov	r24, r17
    10e0:	6a e0       	ldi	r22, 0x0A	; 10
    10e2:	0e 94 d1 09 	call	0x13a2	; 0x13a2 <__udivmodqi4>
    10e6:	80 5d       	subi	r24, 0xD0	; 208
    10e8:	0e 94 7b 02 	call	0x4f6	; 0x4f6 <LCD_VoidData>
	LCD_VoidData((u8)(Copy_u8Temp%10)+48);
    10ec:	81 2f       	mov	r24, r17
    10ee:	6a e0       	ldi	r22, 0x0A	; 10
    10f0:	0e 94 d1 09 	call	0x13a2	; 0x13a2 <__udivmodqi4>
    10f4:	89 2f       	mov	r24, r25
    10f6:	80 5d       	subi	r24, 0xD0	; 208
    10f8:	0e 94 7b 02 	call	0x4f6	; 0x4f6 <LCD_VoidData>
	LCD_VoidGotoxy(8,2);
    10fc:	88 e0       	ldi	r24, 0x08	; 8
    10fe:	62 e0       	ldi	r22, 0x02	; 2
    1100:	0e 94 fd 04 	call	0x9fa	; 0x9fa <LCD_VoidGotoxy>
	LCD_VoidData(Copy_u8Speed+48);
    1104:	80 2f       	mov	r24, r16
    1106:	80 5d       	subi	r24, 0xD0	; 208
    1108:	0e 94 7b 02 	call	0x4f6	; 0x4f6 <LCD_VoidData>

}
    110c:	1f 91       	pop	r17
    110e:	0f 91       	pop	r16
    1110:	08 95       	ret

00001112 <app>:

	return 0 ;
}

void app(void)
{
    1112:	cf 92       	push	r12
    1114:	df 92       	push	r13
    1116:	ef 92       	push	r14
    1118:	ff 92       	push	r15
    111a:	0f 93       	push	r16
    111c:	1f 93       	push	r17
    111e:	df 93       	push	r29
    1120:	cf 93       	push	r28
    1122:	cd b7       	in	r28, 0x3d	; 61
    1124:	de b7       	in	r29, 0x3e	; 62
    1126:	61 97       	sbiw	r28, 0x11	; 17
    1128:	0f b6       	in	r0, 0x3f	; 63
    112a:	f8 94       	cli
    112c:	de bf       	out	0x3e, r29	; 62
    112e:	0f be       	out	0x3f, r0	; 63
    1130:	cd bf       	out	0x3d, r28	; 61
	u8 Local_u8Words[2][7]={"Temp=","Speed="};
    1132:	8e 01       	movw	r16, r28
    1134:	0c 5f       	subi	r16, 0xFC	; 252
    1136:	1f 4f       	sbci	r17, 0xFF	; 255
    1138:	8e e0       	ldi	r24, 0x0E	; 14
    113a:	f8 01       	movw	r30, r16
    113c:	11 92       	st	Z+, r1
    113e:	8a 95       	dec	r24
    1140:	e9 f7       	brne	.-6      	; 0x113c <app+0x2a>
    1142:	d8 01       	movw	r26, r16
    1144:	e0 e6       	ldi	r30, 0x60	; 96
    1146:	f0 e0       	ldi	r31, 0x00	; 0
    1148:	86 e0       	ldi	r24, 0x06	; 6
    114a:	01 90       	ld	r0, Z+
    114c:	0d 92       	st	X+, r0
    114e:	81 50       	subi	r24, 0x01	; 1
    1150:	e1 f7       	brne	.-8      	; 0x114a <app+0x38>
    1152:	1a 86       	std	Y+10, r1	; 0x0a
    1154:	8b e0       	ldi	r24, 0x0B	; 11
    1156:	c8 2e       	mov	r12, r24
    1158:	d1 2c       	mov	r13, r1
    115a:	cc 0e       	add	r12, r28
    115c:	dd 1e       	adc	r13, r29
    115e:	d6 01       	movw	r26, r12
    1160:	e7 e6       	ldi	r30, 0x67	; 103
    1162:	f0 e0       	ldi	r31, 0x00	; 0
    1164:	87 e0       	ldi	r24, 0x07	; 7
    1166:	01 90       	ld	r0, Z+
    1168:	0d 92       	st	X+, r0
    116a:	81 50       	subi	r24, 0x01	; 1
    116c:	e1 f7       	brne	.-8      	; 0x1166 <app+0x54>
	u8 Select_SW_State,Up_SW_State,Down_SW_State,Local_u8Check;
	static u8 Local_u8State=DISPLAY;
	static u8 Local_u8ModeFlag=TEMP;
	static u8 Local_u8UpDownFlag=RELEASE;
	u8 Local_u8Temp=EEPROM_u8ReadByte(TEMP_ADDRESS);
    116e:	8f e5       	ldi	r24, 0x5F	; 95
    1170:	90 e0       	ldi	r25, 0x00	; 0
    1172:	0e 94 52 00 	call	0xa4	; 0xa4 <EEPROM_u8ReadByte>
    1176:	f8 2e       	mov	r15, r24
	u8 Local_u8Speed=EEPROM_u8ReadByte(SPEED_ADDRESS);
    1178:	8f e4       	ldi	r24, 0x4F	; 79
    117a:	90 e0       	ldi	r25, 0x00	; 0
    117c:	0e 94 52 00 	call	0xa4	; 0xa4 <EEPROM_u8ReadByte>
    1180:	e8 2e       	mov	r14, r24
	LCD_VoidGotoxy(2,1);
    1182:	82 e0       	ldi	r24, 0x02	; 2
    1184:	61 e0       	ldi	r22, 0x01	; 1
    1186:	0e 94 fd 04 	call	0x9fa	; 0x9fa <LCD_VoidGotoxy>
	LCD_VoidString(Local_u8Words[0]);
    118a:	c8 01       	movw	r24, r16
    118c:	0e 94 0f 03 	call	0x61e	; 0x61e <LCD_VoidString>
	LCD_VoidGotoxy(2,2);
    1190:	82 e0       	ldi	r24, 0x02	; 2
    1192:	62 e0       	ldi	r22, 0x02	; 2
    1194:	0e 94 fd 04 	call	0x9fa	; 0x9fa <LCD_VoidGotoxy>
	LCD_VoidString(Local_u8Words[1]);
    1198:	c6 01       	movw	r24, r12
    119a:	0e 94 0f 03 	call	0x61e	; 0x61e <LCD_VoidString>
	TACTILE_u8GetState(TACTILE_u8Switch1,&Select_SW_State);
    119e:	80 e0       	ldi	r24, 0x00	; 0
    11a0:	be 01       	movw	r22, r28
    11a2:	6f 5f       	subi	r22, 0xFF	; 255
    11a4:	7f 4f       	sbci	r23, 0xFF	; 255
    11a6:	0e 94 e0 07 	call	0xfc0	; 0xfc0 <TACTILE_u8GetState>
	TACTILE_u8GetState(TACTILE_u8Switch2,&Up_SW_State);
    11aa:	81 e0       	ldi	r24, 0x01	; 1
    11ac:	be 01       	movw	r22, r28
    11ae:	6e 5f       	subi	r22, 0xFE	; 254
    11b0:	7f 4f       	sbci	r23, 0xFF	; 255
    11b2:	0e 94 e0 07 	call	0xfc0	; 0xfc0 <TACTILE_u8GetState>
	TACTILE_u8GetState(TACTILE_u8Switch3,&Down_SW_State);
    11b6:	82 e0       	ldi	r24, 0x02	; 2
    11b8:	be 01       	movw	r22, r28
    11ba:	6d 5f       	subi	r22, 0xFD	; 253
    11bc:	7f 4f       	sbci	r23, 0xFF	; 255
    11be:	0e 94 e0 07 	call	0xfc0	; 0xfc0 <TACTILE_u8GetState>
	Local_u8Check=(Select_SW_State<<SELECT_BIT)|(Up_SW_State<<UP_BIT)|(Down_SW_State<<DOWN_BIT);
    11c2:	89 81       	ldd	r24, Y+1	; 0x01
    11c4:	88 0f       	add	r24, r24
    11c6:	88 0f       	add	r24, r24
    11c8:	0a 81       	ldd	r16, Y+2	; 0x02
    11ca:	00 0f       	add	r16, r16
    11cc:	08 2b       	or	r16, r24
    11ce:	8b 81       	ldd	r24, Y+3	; 0x03
    11d0:	08 2b       	or	r16, r24
	switch(Local_u8State)
    11d2:	80 91 6e 00 	lds	r24, 0x006E
    11d6:	81 30       	cpi	r24, 0x01	; 1
    11d8:	b9 f0       	breq	.+46     	; 0x1208 <app+0xf6>
    11da:	81 30       	cpi	r24, 0x01	; 1
    11dc:	08 f4       	brcc	.+2      	; 0x11e0 <app+0xce>
    11de:	69 c0       	rjmp	.+210    	; 0x12b2 <app+0x1a0>
    11e0:	82 30       	cpi	r24, 0x02	; 2
    11e2:	09 f4       	brne	.+2      	; 0x11e6 <app+0xd4>
    11e4:	59 c0       	rjmp	.+178    	; 0x1298 <app+0x186>
    11e6:	83 30       	cpi	r24, 0x03	; 3
    11e8:	39 f1       	breq	.+78     	; 0x1238 <app+0x126>
		}
		break;
	default:
		break;
	}
}
    11ea:	61 96       	adiw	r28, 0x11	; 17
    11ec:	0f b6       	in	r0, 0x3f	; 63
    11ee:	f8 94       	cli
    11f0:	de bf       	out	0x3e, r29	; 62
    11f2:	0f be       	out	0x3f, r0	; 63
    11f4:	cd bf       	out	0x3d, r28	; 61
    11f6:	cf 91       	pop	r28
    11f8:	df 91       	pop	r29
    11fa:	1f 91       	pop	r17
    11fc:	0f 91       	pop	r16
    11fe:	ff 90       	pop	r15
    1200:	ef 90       	pop	r14
    1202:	df 90       	pop	r13
    1204:	cf 90       	pop	r12
    1206:	08 95       	ret
		default:
			break;
		}
		break;
	case SPEED:
		switch(Local_u8Check)
    1208:	02 30       	cpi	r16, 0x02	; 2
    120a:	09 f4       	brne	.+2      	; 0x120e <app+0xfc>
    120c:	9c c0       	rjmp	.+312    	; 0x1346 <app+0x234>
    120e:	04 30       	cpi	r16, 0x04	; 4
    1210:	09 f4       	brne	.+2      	; 0x1214 <app+0x102>
    1212:	69 c0       	rjmp	.+210    	; 0x12e6 <app+0x1d4>
    1214:	01 30       	cpi	r16, 0x01	; 1
    1216:	49 f7       	brne	.-46     	; 0x11ea <app+0xd8>
			else{

			}
			break;
		case DOWN_SW_PRESSED:
			if(Local_u8Speed>0)
    1218:	ee 20       	and	r14, r14
    121a:	39 f3       	breq	.-50     	; 0x11ea <app+0xd8>
			{
				Local_u8Speed--;
    121c:	1e 2d       	mov	r17, r14
    121e:	11 50       	subi	r17, 0x01	; 1
				LCD_ClearLcd();
    1220:	0e 94 66 03 	call	0x6cc	; 0x6cc <LCD_ClearLcd>
				EEPROM_voidWriteByte(Local_u8Speed,SPEED_ADDRESS);
    1224:	81 2f       	mov	r24, r17
    1226:	6f e4       	ldi	r22, 0x4F	; 79
    1228:	70 e0       	ldi	r23, 0x00	; 0
    122a:	0e 94 4a 00 	call	0x94	; 0x94 <EEPROM_voidWriteByte>
				Local_voidDisplay(0x51,Local_u8Speed);
    122e:	81 e5       	ldi	r24, 0x51	; 81
    1230:	61 2f       	mov	r22, r17
    1232:	0e 94 67 08 	call	0x10ce	; 0x10ce <Local_voidDisplay>
    1236:	d9 cf       	rjmp	.-78     	; 0x11ea <app+0xd8>
	}
}

void Local_voidDisplay(u8 Copy_u8Temp,u8 Copy_u8Speed)
{
	LCD_VoidGotoxy(8,1);
    1238:	88 e0       	ldi	r24, 0x08	; 8
    123a:	61 e0       	ldi	r22, 0x01	; 1
    123c:	0e 94 fd 04 	call	0x9fa	; 0x9fa <LCD_VoidGotoxy>
	LCD_VoidData((u8)(Copy_u8Temp/10)+48);
    1240:	8f 2d       	mov	r24, r15
    1242:	6a e0       	ldi	r22, 0x0A	; 10
    1244:	0e 94 d1 09 	call	0x13a2	; 0x13a2 <__udivmodqi4>
    1248:	80 5d       	subi	r24, 0xD0	; 208
    124a:	0e 94 7b 02 	call	0x4f6	; 0x4f6 <LCD_VoidData>
	LCD_VoidData((u8)(Copy_u8Temp%10)+48);
    124e:	8f 2d       	mov	r24, r15
    1250:	6a e0       	ldi	r22, 0x0A	; 10
    1252:	0e 94 d1 09 	call	0x13a2	; 0x13a2 <__udivmodqi4>
    1256:	89 2f       	mov	r24, r25
    1258:	80 5d       	subi	r24, 0xD0	; 208
    125a:	0e 94 7b 02 	call	0x4f6	; 0x4f6 <LCD_VoidData>
	LCD_VoidGotoxy(8,2);
    125e:	88 e0       	ldi	r24, 0x08	; 8
    1260:	62 e0       	ldi	r22, 0x02	; 2
    1262:	0e 94 fd 04 	call	0x9fa	; 0x9fa <LCD_VoidGotoxy>
	LCD_VoidData(Copy_u8Speed+48);
    1266:	8e 2d       	mov	r24, r14
    1268:	80 5d       	subi	r24, 0xD0	; 208
    126a:	0e 94 7b 02 	call	0x4f6	; 0x4f6 <LCD_VoidData>
	Local_u8Check=(Select_SW_State<<SELECT_BIT)|(Up_SW_State<<UP_BIT)|(Down_SW_State<<DOWN_BIT);
	switch(Local_u8State)
	{
	case DISPLAY:
		Local_voidDisplay(Local_u8Temp,Local_u8Speed);
		switch(Local_u8Check)
    126e:	04 30       	cpi	r16, 0x04	; 4
    1270:	09 f0       	breq	.+2      	; 0x1274 <app+0x162>
    1272:	bb cf       	rjmp	.-138    	; 0x11ea <app+0xd8>
		{
		case SELECT_SW_PRESSED:
			//LCD_VoidClearScreen();
			LCD_VoidGotoxy(1,1);
    1274:	81 e0       	ldi	r24, 0x01	; 1
    1276:	61 e0       	ldi	r22, 0x01	; 1
    1278:	0e 94 fd 04 	call	0x9fa	; 0x9fa <LCD_VoidGotoxy>
			LCD_VoidData(SELECT_AROW);
    127c:	83 e6       	ldi	r24, 0x63	; 99
    127e:	0e 94 7b 02 	call	0x4f6	; 0x4f6 <LCD_VoidData>
			//LCD_VoidString(Local_u8Words[0]);
			LCD_VoidGotoxy(1,2);
    1282:	81 e0       	ldi	r24, 0x01	; 1
    1284:	62 e0       	ldi	r22, 0x02	; 2
    1286:	0e 94 fd 04 	call	0x9fa	; 0x9fa <LCD_VoidGotoxy>
			LCD_VoidData(EMPTY);
    128a:	82 e3       	ldi	r24, 0x32	; 50
    128c:	0e 94 7b 02 	call	0x4f6	; 0x4f6 <LCD_VoidData>
			//LCD_VoidString(Local_u8Words[1]);
			Local_u8State=MODES;
    1290:	82 e0       	ldi	r24, 0x02	; 2
    1292:	80 93 6e 00 	sts	0x006E, r24
    1296:	a9 cf       	rjmp	.-174    	; 0x11ea <app+0xd8>
		default:
			break;
		}
		break;
	case MODES:
		switch(Local_u8Check)
    1298:	02 30       	cpi	r16, 0x02	; 2
    129a:	91 f1       	breq	.+100    	; 0x1300 <app+0x1ee>
    129c:	04 30       	cpi	r16, 0x04	; 4
    129e:	49 f1       	breq	.+82     	; 0x12f2 <app+0x1e0>
    12a0:	01 30       	cpi	r16, 0x01	; 1
    12a2:	09 f0       	breq	.+2      	; 0x12a6 <app+0x194>
    12a4:	a2 cf       	rjmp	.-188    	; 0x11ea <app+0xd8>
			LCD_VoidData(SELECT_AROW);
			LCD_VoidGotoxy(1,(Local_u8ModeFlag+1)%3);
			LCD_VoidData(EMPTY);
			break;
		case DOWN_SW_PRESSED:
			LCD_VoidClearScreen();
    12a6:	0e 94 be 04 	call	0x97c	; 0x97c <LCD_VoidClearScreen>
			Local_u8State=DISPLAY;
    12aa:	83 e0       	ldi	r24, 0x03	; 3
    12ac:	80 93 6e 00 	sts	0x006E, r24
    12b0:	9c cf       	rjmp	.-200    	; 0x11ea <app+0xd8>
		default:
			break;
		}
		break;
	case TEMP:
		switch(Local_u8Check)
    12b2:	02 30       	cpi	r16, 0x02	; 2
    12b4:	09 f4       	brne	.+2      	; 0x12b8 <app+0x1a6>
    12b6:	4e c0       	rjmp	.+156    	; 0x1354 <app+0x242>
    12b8:	04 30       	cpi	r16, 0x04	; 4
    12ba:	a9 f0       	breq	.+42     	; 0x12e6 <app+0x1d4>
    12bc:	01 30       	cpi	r16, 0x01	; 1
    12be:	09 f0       	breq	.+2      	; 0x12c2 <app+0x1b0>
    12c0:	94 cf       	rjmp	.-216    	; 0x11ea <app+0xd8>
			else{

			}
			break;
		case DOWN_SW_PRESSED:
			if(Local_u8Temp>=16)
    12c2:	8f e0       	ldi	r24, 0x0F	; 15
    12c4:	8f 15       	cp	r24, r15
    12c6:	08 f0       	brcs	.+2      	; 0x12ca <app+0x1b8>
    12c8:	90 cf       	rjmp	.-224    	; 0x11ea <app+0xd8>
			{
				Local_u8Temp--;
    12ca:	1f 2d       	mov	r17, r15
    12cc:	11 50       	subi	r17, 0x01	; 1
				EEPROM_voidWriteByte(Local_u8Temp,TEMP_ADDRESS);
    12ce:	81 2f       	mov	r24, r17
    12d0:	6f e5       	ldi	r22, 0x5F	; 95
    12d2:	70 e0       	ldi	r23, 0x00	; 0
    12d4:	0e 94 4a 00 	call	0x94	; 0x94 <EEPROM_voidWriteByte>
				LCD_ClearLcd();
    12d8:	0e 94 66 03 	call	0x6cc	; 0x6cc <LCD_ClearLcd>
				Local_voidDisplay(Local_u8Temp,0x51);
    12dc:	81 2f       	mov	r24, r17
    12de:	61 e5       	ldi	r22, 0x51	; 81
    12e0:	0e 94 67 08 	call	0x10ce	; 0x10ce <Local_voidDisplay>
    12e4:	82 cf       	rjmp	.-252    	; 0x11ea <app+0xd8>
		break;
	case SPEED:
		switch(Local_u8Check)
		{
		case SELECT_SW_PRESSED:
			LCD_VoidClearScreen();
    12e6:	0e 94 be 04 	call	0x97c	; 0x97c <LCD_VoidClearScreen>
			Local_u8State=MODES;
    12ea:	82 e0       	ldi	r24, 0x02	; 2
    12ec:	80 93 6e 00 	sts	0x006E, r24
    12f0:	7c cf       	rjmp	.-264    	; 0x11ea <app+0xd8>
		break;
	case MODES:
		switch(Local_u8Check)
		{
		case SELECT_SW_PRESSED:
			LCD_VoidClearScreen();
    12f2:	0e 94 be 04 	call	0x97c	; 0x97c <LCD_VoidClearScreen>
			Local_u8State=Local_u8ModeFlag;
    12f6:	80 91 be 00 	lds	r24, 0x00BE
    12fa:	80 93 6e 00 	sts	0x006E, r24
    12fe:	75 cf       	rjmp	.-278    	; 0x11ea <app+0xd8>
			break;
		case UP_SW_PRESSED:
			Local_u8ModeFlag=Local_u8ModeFlag^1;
    1300:	80 91 be 00 	lds	r24, 0x00BE
    1304:	21 e0       	ldi	r18, 0x01	; 1
    1306:	82 27       	eor	r24, r18
    1308:	80 93 be 00 	sts	0x00BE, r24
			LCD_VoidGotoxy(1,(Local_u8ModeFlag+1)%3);
    130c:	90 e0       	ldi	r25, 0x00	; 0
    130e:	01 96       	adiw	r24, 0x01	; 1
    1310:	63 e0       	ldi	r22, 0x03	; 3
    1312:	70 e0       	ldi	r23, 0x00	; 0
    1314:	0e 94 f1 09 	call	0x13e2	; 0x13e2 <__divmodhi4>
    1318:	68 2f       	mov	r22, r24
    131a:	81 e0       	ldi	r24, 0x01	; 1
    131c:	0e 94 fd 04 	call	0x9fa	; 0x9fa <LCD_VoidGotoxy>
			LCD_VoidData(SELECT_AROW);
    1320:	83 e6       	ldi	r24, 0x63	; 99
    1322:	0e 94 7b 02 	call	0x4f6	; 0x4f6 <LCD_VoidData>
			LCD_VoidGotoxy(1,(Local_u8ModeFlag+1)%3);
    1326:	80 91 be 00 	lds	r24, 0x00BE
    132a:	90 e0       	ldi	r25, 0x00	; 0
    132c:	01 96       	adiw	r24, 0x01	; 1
    132e:	63 e0       	ldi	r22, 0x03	; 3
    1330:	70 e0       	ldi	r23, 0x00	; 0
    1332:	0e 94 f1 09 	call	0x13e2	; 0x13e2 <__divmodhi4>
    1336:	68 2f       	mov	r22, r24
    1338:	81 e0       	ldi	r24, 0x01	; 1
    133a:	0e 94 fd 04 	call	0x9fa	; 0x9fa <LCD_VoidGotoxy>
			LCD_VoidData(EMPTY);
    133e:	82 e3       	ldi	r24, 0x32	; 50
    1340:	0e 94 7b 02 	call	0x4f6	; 0x4f6 <LCD_VoidData>
    1344:	52 cf       	rjmp	.-348    	; 0x11ea <app+0xd8>
		case SELECT_SW_PRESSED:
			LCD_VoidClearScreen();
			Local_u8State=MODES;
			break;
		case UP_SW_PRESSED:
			if(Local_u8Speed<=6)
    1346:	e6 e0       	ldi	r30, 0x06	; 6
    1348:	ee 15       	cp	r30, r14
    134a:	08 f4       	brcc	.+2      	; 0x134e <app+0x23c>
    134c:	4e cf       	rjmp	.-356    	; 0x11ea <app+0xd8>
			{
				Local_u8Speed++;
    134e:	1e 2d       	mov	r17, r14
    1350:	1f 5f       	subi	r17, 0xFF	; 255
    1352:	66 cf       	rjmp	.-308    	; 0x1220 <app+0x10e>
		case SELECT_SW_PRESSED:
			LCD_VoidClearScreen();
			Local_u8State=MODES;
			break;
		case UP_SW_PRESSED:
			if(Local_u8Temp<=30)
    1354:	fe e1       	ldi	r31, 0x1E	; 30
    1356:	ff 15       	cp	r31, r15
    1358:	08 f4       	brcc	.+2      	; 0x135c <app+0x24a>
    135a:	47 cf       	rjmp	.-370    	; 0x11ea <app+0xd8>
			{
				Local_u8Temp++;
    135c:	1f 2d       	mov	r17, r15
    135e:	1f 5f       	subi	r17, 0xFF	; 255
    1360:	b6 cf       	rjmp	.-148    	; 0x12ce <app+0x1bc>

00001362 <main>:
void Local_voidDisplay(u8 Copy_u8Temp,u8 Copy_u8Speed);
void app(void);


int main (void){
	DIO_voidInit();
    1362:	0e 94 57 00 	call	0xae	; 0xae <DIO_voidInit>
	TACTILE_voidInit();
    1366:	0e 94 df 07 	call	0xfbe	; 0xfbe <TACTILE_voidInit>
	LCD_VoidInit();
    136a:	0e 94 a5 03 	call	0x74a	; 0x74a <LCD_VoidInit>
	EEPROM_voidInit();
    136e:	0e 94 49 00 	call	0x92	; 0x92 <EEPROM_voidInit>
	LCD_VoidData('A');
    1372:	81 e4       	ldi	r24, 0x41	; 65
    1374:	0e 94 7b 02 	call	0x4f6	; 0x4f6 <LCD_VoidData>
    1378:	80 e0       	ldi	r24, 0x00	; 0
    137a:	90 e0       	ldi	r25, 0x00	; 0
	Delay_ms_Max1s(100);
    137c:	00 00       	nop
    137e:	01 96       	adiw	r24, 0x01	; 1
    1380:	23 ec       	ldi	r18, 0xC3	; 195
    1382:	80 35       	cpi	r24, 0x50	; 80
    1384:	92 07       	cpc	r25, r18
    1386:	d1 f7       	brne	.-12     	; 0x137c <main+0x1a>
	EEPROM_voidWriteByte(20,TEMP_ADDRESS);
    1388:	84 e1       	ldi	r24, 0x14	; 20
    138a:	6f e5       	ldi	r22, 0x5F	; 95
    138c:	70 e0       	ldi	r23, 0x00	; 0
    138e:	0e 94 4a 00 	call	0x94	; 0x94 <EEPROM_voidWriteByte>
	EEPROM_voidWriteByte(2,SPEED_ADDRESS);
    1392:	82 e0       	ldi	r24, 0x02	; 2
    1394:	6f e4       	ldi	r22, 0x4F	; 79
    1396:	70 e0       	ldi	r23, 0x00	; 0
    1398:	0e 94 4a 00 	call	0x94	; 0x94 <EEPROM_voidWriteByte>
	//LCD_VoidString("sfs");
	while (1){
		 app();
    139c:	0e 94 89 08 	call	0x1112	; 0x1112 <app>
    13a0:	fd cf       	rjmp	.-6      	; 0x139c <main+0x3a>

000013a2 <__udivmodqi4>:
    13a2:	99 1b       	sub	r25, r25
    13a4:	79 e0       	ldi	r23, 0x09	; 9
    13a6:	04 c0       	rjmp	.+8      	; 0x13b0 <__udivmodqi4_ep>

000013a8 <__udivmodqi4_loop>:
    13a8:	99 1f       	adc	r25, r25
    13aa:	96 17       	cp	r25, r22
    13ac:	08 f0       	brcs	.+2      	; 0x13b0 <__udivmodqi4_ep>
    13ae:	96 1b       	sub	r25, r22

000013b0 <__udivmodqi4_ep>:
    13b0:	88 1f       	adc	r24, r24
    13b2:	7a 95       	dec	r23
    13b4:	c9 f7       	brne	.-14     	; 0x13a8 <__udivmodqi4_loop>
    13b6:	80 95       	com	r24
    13b8:	08 95       	ret

000013ba <__udivmodhi4>:
    13ba:	aa 1b       	sub	r26, r26
    13bc:	bb 1b       	sub	r27, r27
    13be:	51 e1       	ldi	r21, 0x11	; 17
    13c0:	07 c0       	rjmp	.+14     	; 0x13d0 <__udivmodhi4_ep>

000013c2 <__udivmodhi4_loop>:
    13c2:	aa 1f       	adc	r26, r26
    13c4:	bb 1f       	adc	r27, r27
    13c6:	a6 17       	cp	r26, r22
    13c8:	b7 07       	cpc	r27, r23
    13ca:	10 f0       	brcs	.+4      	; 0x13d0 <__udivmodhi4_ep>
    13cc:	a6 1b       	sub	r26, r22
    13ce:	b7 0b       	sbc	r27, r23

000013d0 <__udivmodhi4_ep>:
    13d0:	88 1f       	adc	r24, r24
    13d2:	99 1f       	adc	r25, r25
    13d4:	5a 95       	dec	r21
    13d6:	a9 f7       	brne	.-22     	; 0x13c2 <__udivmodhi4_loop>
    13d8:	80 95       	com	r24
    13da:	90 95       	com	r25
    13dc:	bc 01       	movw	r22, r24
    13de:	cd 01       	movw	r24, r26
    13e0:	08 95       	ret

000013e2 <__divmodhi4>:
    13e2:	97 fb       	bst	r25, 7
    13e4:	09 2e       	mov	r0, r25
    13e6:	07 26       	eor	r0, r23
    13e8:	0a d0       	rcall	.+20     	; 0x13fe <__divmodhi4_neg1>
    13ea:	77 fd       	sbrc	r23, 7
    13ec:	04 d0       	rcall	.+8      	; 0x13f6 <__divmodhi4_neg2>
    13ee:	e5 df       	rcall	.-54     	; 0x13ba <__udivmodhi4>
    13f0:	06 d0       	rcall	.+12     	; 0x13fe <__divmodhi4_neg1>
    13f2:	00 20       	and	r0, r0
    13f4:	1a f4       	brpl	.+6      	; 0x13fc <__divmodhi4_exit>

000013f6 <__divmodhi4_neg2>:
    13f6:	70 95       	com	r23
    13f8:	61 95       	neg	r22
    13fa:	7f 4f       	sbci	r23, 0xFF	; 255

000013fc <__divmodhi4_exit>:
    13fc:	08 95       	ret

000013fe <__divmodhi4_neg1>:
    13fe:	f6 f7       	brtc	.-4      	; 0x13fc <__divmodhi4_exit>
    1400:	90 95       	com	r25
    1402:	81 95       	neg	r24
    1404:	9f 4f       	sbci	r25, 0xFF	; 255
    1406:	08 95       	ret

00001408 <_exit>:
    1408:	f8 94       	cli

0000140a <__stop_program>:
    140a:	ff cf       	rjmp	.-2      	; 0x140a <__stop_program>
